(iframed.core.models
ConstraintBasedModel
p1
(dp2
S'biomass_reaction'
p3
NsS'reactions'
p4
ccollections
OrderedDict
p5
((lp6
(lp7
S'EX_co2e_mkt'
p8
a(iframed.core.models
Reaction
p9
(dp10
S'reversible'
p11
I01
sS'id'
p12
g8
sS'name'
p13
Nsbaa(lp14
S'EX_po4e_mkt'
p15
a(iframed.core.models
Reaction
p16
(dp17
g11
I01
sg12
g15
sg13
Nsbaa(lp18
S'EX_waste_organic_mkt'
p19
a(iframed.core.models
Reaction
p20
(dp21
g11
I01
sg12
g19
sg13
Nsbaa(lp22
S'EX_waste_cellulosic_mkt'
p23
a(iframed.core.models
Reaction
p24
(dp25
g11
I01
sg12
g23
sg13
Nsbaa(lp26
S'EX_waste_inorganic_mkt'
p27
a(iframed.core.models
Reaction
p28
(dp29
g11
I01
sg12
g27
sg13
Nsbaa(lp30
S'EX_lime_mkt'
p31
a(iframed.core.models
Reaction
p32
(dp33
g11
I01
sg12
g31
sg13
Nsbaa(lp34
S'EX_sulfuric_acid_mkt'
p35
a(iframed.core.models
Reaction
p36
(dp37
g11
I01
sg12
g35
sg13
Nsbaa(lp38
S'DM_glc_mkt'
p39
a(iframed.core.models
Reaction
p40
(dp41
g11
I01
sg12
g39
sg13
Nsbaa(lp42
S'DM_glyc_mkt'
p43
a(iframed.core.models
Reaction
p44
(dp45
g11
I01
sg12
g43
sg13
Nsbaa(lp46
S'DM_1,3pdo_mkt'
p47
a(iframed.core.models
Reaction
p48
(dp49
g11
I01
sg12
g47
sg13
Nsbaa(lp50
S'DM_3hp_mkt'
p51
a(iframed.core.models
Reaction
p52
(dp53
g11
I01
sg12
g51
sg13
Nsbaa(lp54
S'DM_biomass_mkt'
p55
a(iframed.core.models
Reaction
p56
(dp57
g11
I01
sg12
g55
sg13
Nsbaa(lp58
S'DM_soymeal_mkt'
p59
a(iframed.core.models
Reaction
p60
(dp61
g11
I01
sg12
g59
sg13
Nsbaa(lp62
S'DM_biodiesel_mkt'
p63
a(iframed.core.models
Reaction
p64
(dp65
g11
I01
sg12
g63
sg13
Nsbaa(lp66
S'DM_energy_mkt'
p67
a(iframed.core.models
Reaction
p68
(dp69
g11
I01
sg12
g67
sg13
Nsbaa(lp70
S'EX_land_res'
p71
a(iframed.core.models
Reaction
p72
(dp73
g11
I01
sg12
g71
sg13
Nsbaa(lp74
S'EX_petroleum_res'
p75
a(iframed.core.models
Reaction
p76
(dp77
g11
I01
sg12
g75
sg13
Nsbaa(lp78
S'EX_natural_gas_res'
p79
a(iframed.core.models
Reaction
p80
(dp81
g11
I01
sg12
g79
sg13
Nsbaa(lp82
S'EX_coal_res'
p83
a(iframed.core.models
Reaction
p84
(dp85
g11
I01
sg12
g83
sg13
Nsbaa(lp86
S'MX_res2mkt_land'
p87
a(iframed.core.models
Reaction
p88
(dp89
g11
I01
sg12
g87
sg13
Nsbaa(lp90
S'PROFIT_res'
p91
a(iframed.core.models
Reaction
p92
(dp93
g11
I01
sg12
g91
sg13
Nsbaa(lp94
S'MX_res2mkt_petroleum'
p95
a(iframed.core.models
Reaction
p96
(dp97
g11
I01
sg12
g95
sg13
Nsbaa(lp98
S'MX_res2mkt_natural_gas'
p99
a(iframed.core.models
Reaction
p100
(dp101
g11
I01
sg12
g99
sg13
Nsbaa(lp102
S'MX_res2mkt_coal'
p103
a(iframed.core.models
Reaction
p104
(dp105
g11
I01
sg12
g103
sg13
Nsbaa(lp106
S'MX_agr2mkt_land'
p107
a(iframed.core.models
Reaction
p108
(dp109
g11
I01
sg12
g107
sg13
Nsbaa(lp110
S'MX_agr2mkt_po4e'
p111
a(iframed.core.models
Reaction
p112
(dp113
g11
I01
sg12
g111
sg13
Nsbaa(lp114
S'MX_agr2mkt_waste_organic'
p115
a(iframed.core.models
Reaction
p116
(dp117
g11
I01
sg12
g115
sg13
Nsbaa(lp118
S'MX_agr2mkt_waste_cellulosic'
p119
a(iframed.core.models
Reaction
p120
(dp121
g11
I01
sg12
g119
sg13
Nsbaa(lp122
S'MX_agr2mkt_glc'
p123
a(iframed.core.models
Reaction
p124
(dp125
g11
I01
sg12
g123
sg13
Nsbaa(lp126
S'MX_agr2mkt_glyc'
p127
a(iframed.core.models
Reaction
p128
(dp129
g11
I01
sg12
g127
sg13
Nsbaa(lp130
S'MX_agr2mkt_soymeal'
p131
a(iframed.core.models
Reaction
p132
(dp133
g11
I01
sg12
g131
sg13
Nsbaa(lp134
S'MX_agr2mkt_biodiesel'
p135
a(iframed.core.models
Reaction
p136
(dp137
g11
I01
sg12
g135
sg13
Nsbaa(lp138
S'MX_agr2mkt_energy'
p139
a(iframed.core.models
Reaction
p140
(dp141
g11
I01
sg12
g139
sg13
Nsbaa(lp142
S'soy_conversion'
p143
a(iframed.core.models
Reaction
p144
(dp145
g11
I00
sg12
g143
sg13
Nsbaa(lp146
S'PROFIT_agr'
p147
a(iframed.core.models
Reaction
p148
(dp149
g11
I01
sg12
g147
sg13
Nsbaa(lp150
S'soy_crushing'
p151
a(iframed.core.models
Reaction
p152
(dp153
g11
I00
sg12
g151
sg13
Nsbaa(lp154
S'corn_farming'
p155
a(iframed.core.models
Reaction
p156
(dp157
g11
I00
sg12
g155
sg13
Nsbaa(lp158
S'corn_hydrolysis'
p159
a(iframed.core.models
Reaction
p160
(dp161
g11
I00
sg12
g159
sg13
Nsbaa(lp162
S'corn_wetmill'
p163
a(iframed.core.models
Reaction
p164
(dp165
g11
I00
sg12
g163
sg13
Nsbaa(lp166
S'soy_farming'
p167
a(iframed.core.models
Reaction
p168
(dp169
g11
I00
sg12
g167
sg13
Nsbaa(lp170
S'MX_erg2mkt_petroleum'
p171
a(iframed.core.models
Reaction
p172
(dp173
g11
I01
sg12
g171
sg13
Nsbaa(lp174
S'MX_erg2mkt_natural_gas'
p175
a(iframed.core.models
Reaction
p176
(dp177
g11
I01
sg12
g175
sg13
Nsbaa(lp178
S'MX_erg2mkt_coal'
p179
a(iframed.core.models
Reaction
p180
(dp181
g11
I01
sg12
g179
sg13
Nsbaa(lp182
S'MX_erg2mkt_co2e'
p183
a(iframed.core.models
Reaction
p184
(dp185
g11
I01
sg12
g183
sg13
Nsbaa(lp186
S'MX_erg2mkt_energy'
p187
a(iframed.core.models
Reaction
p188
(dp189
g11
I01
sg12
g187
sg13
Nsbaa(lp190
S'MX_erg2mkt_biodiesel'
p191
a(iframed.core.models
Reaction
p192
(dp193
g11
I01
sg12
g191
sg13
Nsbaa(lp194
S'energy_from_natural_gas'
p195
a(iframed.core.models
Reaction
p196
(dp197
g11
I00
sg12
g195
sg13
Nsbaa(lp198
S'PROFIT_erg'
p199
a(iframed.core.models
Reaction
p200
(dp201
g11
I01
sg12
g199
sg13
Nsbaa(lp202
S'energy_from_petroleum'
p203
a(iframed.core.models
Reaction
p204
(dp205
g11
I00
sg12
g203
sg13
Nsbaa(lp206
S'energy_from_coal'
p207
a(iframed.core.models
Reaction
p208
(dp209
g11
I00
sg12
g207
sg13
Nsbaa(lp210
S'energy_from_biodiesel'
p211
a(iframed.core.models
Reaction
p212
(dp213
g11
I00
sg12
g211
sg13
Nsbaa(lp214
S'MX_bch2mkt_land'
p215
a(iframed.core.models
Reaction
p216
(dp217
g11
I01
sg12
g215
sg13
Nsbaa(lp218
S'MX_bch2mkt_waste_organic'
p219
a(iframed.core.models
Reaction
p220
(dp221
g11
I01
sg12
g219
sg13
Nsbaa(lp222
S'MX_bch2mkt_waste_inorganic'
p223
a(iframed.core.models
Reaction
p224
(dp225
g11
I01
sg12
g223
sg13
Nsbaa(lp226
S'MX_bch2mkt_glc'
p227
a(iframed.core.models
Reaction
p228
(dp229
g11
I01
sg12
g227
sg13
Nsbaa(lp230
S'MX_bch2mkt_glyc'
p231
a(iframed.core.models
Reaction
p232
(dp233
g11
I01
sg12
g231
sg13
Nsbaa(lp234
S'MX_bch2mkt_1,3pdo'
p235
a(iframed.core.models
Reaction
p236
(dp237
g11
I01
sg12
g235
sg13
Nsbaa(lp238
S'MX_bch2mkt_3hp'
p239
a(iframed.core.models
Reaction
p240
(dp241
g11
I01
sg12
g239
sg13
Nsbaa(lp242
S'MX_bch2mkt_biomass'
p243
a(iframed.core.models
Reaction
p244
(dp245
g11
I01
sg12
g243
sg13
Nsbaa(lp246
S'MX_bch2mkt_energy'
p247
a(iframed.core.models
Reaction
p248
(dp249
g11
I01
sg12
g247
sg13
Nsbaa(lp250
S'MX_bch2mkt_lime'
p251
a(iframed.core.models
Reaction
p252
(dp253
g11
I01
sg12
g251
sg13
Nsbaa(lp254
S'MX_bch2mkt_sulfuric_acid'
p255
a(iframed.core.models
Reaction
p256
(dp257
g11
I01
sg12
g255
sg13
Nsbaa(lp258
S'inorganicWaste_from_gypsum'
p259
a(iframed.core.models
Reaction
p260
(dp261
g11
I00
sg12
g259
sg13
Nsbaa(lp262
S'BPR_glc_1,3pdo_ecoli_mu_0.1_aeroFB_ctrf_evapM'
p263
a(iframed.core.models
Reaction
p264
(dp265
g11
I00
sg12
g263
sg13
Nsbaa(lp266
S'BPR_glc_1,3pdo_ecoli_mu_0.2_aeroFB_ctrf_evapM'
p267
a(iframed.core.models
Reaction
p268
(dp269
g11
I00
sg12
g267
sg13
Nsbaa(lp270
S'BPR_glc_1,3pdo_ecoli_mu_0.3_aeroFB_ctrf_evapM'
p271
a(iframed.core.models
Reaction
p272
(dp273
g11
I00
sg12
g271
sg13
Nsbaa(lp274
S'BPR_glc_1,3pdo_ecoli_mu_0.4_aeroFB_ctrf_evapM'
p275
a(iframed.core.models
Reaction
p276
(dp277
g11
I00
sg12
g275
sg13
Nsbaa(lp278
S'BPR_glc_1,3pdo_ecoli_mu_0.5_aeroFB_ctrf_evapM'
p279
a(iframed.core.models
Reaction
p280
(dp281
g11
I00
sg12
g279
sg13
Nsbaa(lp282
S'BPR_glc_1,3pdo_ecoli_mu_0.599_aeroFB_ctrf_evapM'
p283
a(iframed.core.models
Reaction
p284
(dp285
g11
I00
sg12
g283
sg13
Nsbaa(lp286
S'BPR_glc_1,3pdo_ecoli_mu_0.699_aeroFB_ctrf_evapM'
p287
a(iframed.core.models
Reaction
p288
(dp289
g11
I00
sg12
g287
sg13
Nsbaa(lp290
S'BPR_glc_1,3pdo_ecoli_mu_0.799_aeroFB_ctrf_evapM'
p291
a(iframed.core.models
Reaction
p292
(dp293
g11
I00
sg12
g291
sg13
Nsbaa(lp294
S'BPR_glc_3hp_ecoli_mu_0.1_aeroFB_ctrf_evapM'
p295
a(iframed.core.models
Reaction
p296
(dp297
g11
I00
sg12
g295
sg13
Nsbaa(lp298
S'BPR_glc_3hp_ecoli_mu_0.2_aeroFB_ctrf_evapM'
p299
a(iframed.core.models
Reaction
p300
(dp301
g11
I00
sg12
g299
sg13
Nsbaa(lp302
S'BPR_glc_3hp_ecoli_mu_0.3_aeroFB_ctrf_evapM'
p303
a(iframed.core.models
Reaction
p304
(dp305
g11
I00
sg12
g303
sg13
Nsbaa(lp306
S'BPR_glc_3hp_ecoli_mu_0.4_aeroFB_ctrf_evapM'
p307
a(iframed.core.models
Reaction
p308
(dp309
g11
I00
sg12
g307
sg13
Nsbaa(lp310
S'BPR_glc_3hp_ecoli_mu_0.5_aeroFB_ctrf_evapM'
p311
a(iframed.core.models
Reaction
p312
(dp313
g11
I00
sg12
g311
sg13
Nsbaa(lp314
S'BPR_glc_3hp_ecoli_mu_0.599_aeroFB_ctrf_evapM'
p315
a(iframed.core.models
Reaction
p316
(dp317
g11
I00
sg12
g315
sg13
Nsbaa(lp318
S'BPR_glc_3hp_ecoli_mu_0.699_aeroFB_ctrf_evapM'
p319
a(iframed.core.models
Reaction
p320
(dp321
g11
I00
sg12
g319
sg13
Nsbaa(lp322
S'BPR_glc_3hp_ecoli_mu_0.799_aeroFB_ctrf_evapM'
p323
a(iframed.core.models
Reaction
p324
(dp325
g11
I00
sg12
g323
sg13
Nsbaa(lp326
S'BPR_glyc_1,3pdo_ecoli_mu_0.092_aeroFB_ctrf_evapM'
p327
a(iframed.core.models
Reaction
p328
(dp329
g11
I00
sg12
g327
sg13
Nsbaa(lp330
S'BPR_glyc_1,3pdo_ecoli_mu_0.184_aeroFB_ctrf_evapM'
p331
a(iframed.core.models
Reaction
p332
(dp333
g11
I00
sg12
g331
sg13
Nsbaa(lp334
S'BPR_glyc_1,3pdo_ecoli_mu_0.276_aeroFB_ctrf_evapM'
p335
a(iframed.core.models
Reaction
p336
(dp337
g11
I00
sg12
g335
sg13
Nsbaa(lp338
S'BPR_glyc_1,3pdo_ecoli_mu_0.368_aeroFB_ctrf_evapM'
p339
a(iframed.core.models
Reaction
p340
(dp341
g11
I00
sg12
g339
sg13
Nsbaa(lp342
S'BPR_glyc_1,3pdo_ecoli_mu_0.46_aeroFB_ctrf_evapM'
p343
a(iframed.core.models
Reaction
p344
(dp345
g11
I00
sg12
g343
sg13
Nsbaa(lp346
S'BPR_glyc_1,3pdo_ecoli_mu_0.551_aeroFB_ctrf_evapM'
p347
a(iframed.core.models
Reaction
p348
(dp349
g11
I00
sg12
g347
sg13
Nsbaa(lp350
S'BPR_glyc_1,3pdo_ecoli_mu_0.643_aeroFB_ctrf_evapM'
p351
a(iframed.core.models
Reaction
p352
(dp353
g11
I00
sg12
g351
sg13
Nsbaa(lp354
S'BPR_glyc_1,3pdo_ecoli_mu_0.735_aeroFB_ctrf_evapM'
p355
a(iframed.core.models
Reaction
p356
(dp357
g11
I00
sg12
g355
sg13
Nsbaa(lp358
S'BPR_glyc_3hp_ecoli_mu_0.092_aeroFB_ctrf_evapM'
p359
a(iframed.core.models
Reaction
p360
(dp361
g11
I00
sg12
g359
sg13
Nsbaa(lp362
S'BPR_glyc_3hp_ecoli_mu_0.184_aeroFB_ctrf_evapM'
p363
a(iframed.core.models
Reaction
p364
(dp365
g11
I00
sg12
g363
sg13
Nsbaa(lp366
S'BPR_glyc_3hp_ecoli_mu_0.276_aeroFB_ctrf_evapM'
p367
a(iframed.core.models
Reaction
p368
(dp369
g11
I00
sg12
g367
sg13
Nsbaa(lp370
S'BPR_glyc_3hp_ecoli_mu_0.368_aeroFB_ctrf_evapM'
p371
a(iframed.core.models
Reaction
p372
(dp373
g11
I00
sg12
g371
sg13
Nsbaa(lp374
S'BPR_glyc_3hp_ecoli_mu_0.46_aeroFB_ctrf_evapM'
p375
a(iframed.core.models
Reaction
p376
(dp377
g11
I00
sg12
g375
sg13
Nsbaa(lp378
S'BPR_glyc_3hp_ecoli_mu_0.551_aeroFB_ctrf_evapM'
p379
a(iframed.core.models
Reaction
p380
(dp381
g11
I00
sg12
g379
sg13
Nsbaa(lp382
S'BPR_glyc_3hp_ecoli_mu_0.643_aeroFB_ctrf_evapM'
p383
a(iframed.core.models
Reaction
p384
(dp385
g11
I00
sg12
g383
sg13
Nsbaa(lp386
S'BPR_glyc_3hp_ecoli_mu_0.735_aeroFB_ctrf_evapM'
p387
a(iframed.core.models
Reaction
p388
(dp389
g11
I00
sg12
g387
sg13
Nsbaa(lp390
S'BPR_glc_1,3pdo_ecoli_mu_0.058_anaeFB_ctrf_evapM'
p391
a(iframed.core.models
Reaction
p392
(dp393
g11
I00
sg12
g391
sg13
Nsbaa(lp394
S'BPR_glc_1,3pdo_ecoli_mu_0.115_anaeFB_ctrf_evapM'
p395
a(iframed.core.models
Reaction
p396
(dp397
g11
I00
sg12
g395
sg13
Nsbaa(lp398
S'BPR_glc_1,3pdo_ecoli_mu_0.173_anaeFB_ctrf_evapM'
p399
a(iframed.core.models
Reaction
p400
(dp401
g11
I00
sg12
g399
sg13
Nsbaa(lp402
S'BPR_glc_1,3pdo_ecoli_mu_0.23_anaeFB_ctrf_evapM'
p403
a(iframed.core.models
Reaction
p404
(dp405
g11
I00
sg12
g403
sg13
Nsbaa(lp406
S'BPR_glc_1,3pdo_ecoli_mu_0.288_anaeFB_ctrf_evapM'
p407
a(iframed.core.models
Reaction
p408
(dp409
g11
I00
sg12
g407
sg13
Nsbaa(lp410
S'BPR_glc_1,3pdo_ecoli_mu_0.345_anaeFB_ctrf_evapM'
p411
a(iframed.core.models
Reaction
p412
(dp413
g11
I00
sg12
g411
sg13
Nsbaa(lp414
S'BPR_glc_1,3pdo_ecoli_mu_0.403_anaeFB_ctrf_evapM'
p415
a(iframed.core.models
Reaction
p416
(dp417
g11
I00
sg12
g415
sg13
Nsbaa(lp418
S'BPR_glc_1,3pdo_ecoli_mu_0.46_anaeFB_ctrf_evapM'
p419
a(iframed.core.models
Reaction
p420
(dp421
g11
I00
sg12
g419
sg13
Nsbaa(lp422
S'BPR_glc_3hp_ecoli_mu_0.058_anaeFB_ctrf_evapM'
p423
a(iframed.core.models
Reaction
p424
(dp425
g11
I00
sg12
g423
sg13
Nsbaa(lp426
S'BPR_glc_3hp_ecoli_mu_0.115_anaeFB_ctrf_evapM'
p427
a(iframed.core.models
Reaction
p428
(dp429
g11
I00
sg12
g427
sg13
Nsbaa(lp430
S'BPR_glc_3hp_ecoli_mu_0.173_anaeFB_ctrf_evapM'
p431
a(iframed.core.models
Reaction
p432
(dp433
g11
I00
sg12
g431
sg13
Nsbaa(lp434
S'BPR_glc_3hp_ecoli_mu_0.23_anaeFB_ctrf_evapM'
p435
a(iframed.core.models
Reaction
p436
(dp437
g11
I00
sg12
g435
sg13
Nsbaa(lp438
S'BPR_glc_3hp_ecoli_mu_0.288_anaeFB_ctrf_evapM'
p439
a(iframed.core.models
Reaction
p440
(dp441
g11
I00
sg12
g439
sg13
Nsbaa(lp442
S'BPR_glc_3hp_ecoli_mu_0.345_anaeFB_ctrf_evapM'
p443
a(iframed.core.models
Reaction
p444
(dp445
g11
I00
sg12
g443
sg13
Nsbaa(lp446
S'BPR_glc_3hp_ecoli_mu_0.403_anaeFB_ctrf_evapM'
p447
a(iframed.core.models
Reaction
p448
(dp449
g11
I00
sg12
g447
sg13
Nsbaa(lp450
S'BPR_glc_3hp_ecoli_mu_0.46_anaeFB_ctrf_evapM'
p451
a(iframed.core.models
Reaction
p452
(dp453
g11
I00
sg12
g451
sg13
Nsbaa(lp454
S'BPR_glc_1,3pdo_scere_mu_0.079_aeroFB_ctrf_evapM'
p455
a(iframed.core.models
Reaction
p456
(dp457
g11
I00
sg12
g455
sg13
Nsbaa(lp458
S'BPR_glc_1,3pdo_scere_mu_0.158_aeroFB_ctrf_evapM'
p459
a(iframed.core.models
Reaction
p460
(dp461
g11
I00
sg12
g459
sg13
Nsbaa(lp462
S'BPR_glc_1,3pdo_scere_mu_0.237_aeroFB_ctrf_evapM'
p463
a(iframed.core.models
Reaction
p464
(dp465
g11
I00
sg12
g463
sg13
Nsbaa(lp466
S'BPR_glc_1,3pdo_scere_mu_0.316_aeroFB_ctrf_evapM'
p467
a(iframed.core.models
Reaction
p468
(dp469
g11
I00
sg12
g467
sg13
Nsbaa(lp470
S'BPR_glc_1,3pdo_scere_mu_0.396_aeroFB_ctrf_evapM'
p471
a(iframed.core.models
Reaction
p472
(dp473
g11
I00
sg12
g471
sg13
Nsbaa(lp474
S'BPR_glc_1,3pdo_scere_mu_0.475_aeroFB_ctrf_evapM'
p475
a(iframed.core.models
Reaction
p476
(dp477
g11
I00
sg12
g475
sg13
Nsbaa(lp478
S'BPR_glc_1,3pdo_scere_mu_0.554_aeroFB_ctrf_evapM'
p479
a(iframed.core.models
Reaction
p480
(dp481
g11
I00
sg12
g479
sg13
Nsbaa(lp482
S'BPR_glc_1,3pdo_scere_mu_0.633_aeroFB_ctrf_evapM'
p483
a(iframed.core.models
Reaction
p484
(dp485
g11
I00
sg12
g483
sg13
Nsbaa(lp486
S'BPR_glc_3hp_scere_mu_0.079_aeroFB_ctrf_evapM'
p487
a(iframed.core.models
Reaction
p488
(dp489
g11
I00
sg12
g487
sg13
Nsbaa(lp490
S'BPR_glc_3hp_scere_mu_0.158_aeroFB_ctrf_evapM'
p491
a(iframed.core.models
Reaction
p492
(dp493
g11
I00
sg12
g491
sg13
Nsbaa(lp494
S'BPR_glc_3hp_scere_mu_0.237_aeroFB_ctrf_evapM'
p495
a(iframed.core.models
Reaction
p496
(dp497
g11
I00
sg12
g495
sg13
Nsbaa(lp498
S'BPR_glc_3hp_scere_mu_0.316_aeroFB_ctrf_evapM'
p499
a(iframed.core.models
Reaction
p500
(dp501
g11
I00
sg12
g499
sg13
Nsbaa(lp502
S'BPR_glc_3hp_scere_mu_0.396_aeroFB_ctrf_evapM'
p503
a(iframed.core.models
Reaction
p504
(dp505
g11
I00
sg12
g503
sg13
Nsbaa(lp506
S'BPR_glc_3hp_scere_mu_0.475_aeroFB_ctrf_evapM'
p507
a(iframed.core.models
Reaction
p508
(dp509
g11
I00
sg12
g507
sg13
Nsbaa(lp510
S'BPR_glc_3hp_scere_mu_0.554_aeroFB_ctrf_evapM'
p511
a(iframed.core.models
Reaction
p512
(dp513
g11
I00
sg12
g511
sg13
Nsbaa(lp514
S'BPR_glc_3hp_scere_mu_0.633_aeroFB_ctrf_evapM'
p515
a(iframed.core.models
Reaction
p516
(dp517
g11
I00
sg12
g515
sg13
Nsbaa(lp518
S'BPR_glyc_1,3pdo_scere_mu_0.027_aeroFB_ctrf_evapM'
p519
a(iframed.core.models
Reaction
p520
(dp521
g11
I00
sg12
g519
sg13
Nsbaa(lp522
S'BPR_glyc_1,3pdo_scere_mu_0.053_aeroFB_ctrf_evapM'
p523
a(iframed.core.models
Reaction
p524
(dp525
g11
I00
sg12
g523
sg13
Nsbaa(lp526
S'BPR_glyc_1,3pdo_scere_mu_0.08_aeroFB_ctrf_evapM'
p527
a(iframed.core.models
Reaction
p528
(dp529
g11
I00
sg12
g527
sg13
Nsbaa(lp530
S'BPR_glyc_1,3pdo_scere_mu_0.107_aeroFB_ctrf_evapM'
p531
a(iframed.core.models
Reaction
p532
(dp533
g11
I00
sg12
g531
sg13
Nsbaa(lp534
S'BPR_glyc_1,3pdo_scere_mu_0.133_aeroFB_ctrf_evapM'
p535
a(iframed.core.models
Reaction
p536
(dp537
g11
I00
sg12
g535
sg13
Nsbaa(lp538
S'BPR_glyc_1,3pdo_scere_mu_0.16_aeroFB_ctrf_evapM'
p539
a(iframed.core.models
Reaction
p540
(dp541
g11
I00
sg12
g539
sg13
Nsbaa(lp542
S'BPR_glyc_1,3pdo_scere_mu_0.187_aeroFB_ctrf_evapM'
p543
a(iframed.core.models
Reaction
p544
(dp545
g11
I00
sg12
g543
sg13
Nsbaa(lp546
S'BPR_glyc_1,3pdo_scere_mu_0.214_aeroFB_ctrf_evapM'
p547
a(iframed.core.models
Reaction
p548
(dp549
g11
I00
sg12
g547
sg13
Nsbaa(lp550
S'BPR_glyc_3hp_scere_mu_0.027_aeroFB_ctrf_evapM'
p551
a(iframed.core.models
Reaction
p552
(dp553
g11
I00
sg12
g551
sg13
Nsbaa(lp554
S'BPR_glyc_3hp_scere_mu_0.053_aeroFB_ctrf_evapM'
p555
a(iframed.core.models
Reaction
p556
(dp557
g11
I00
sg12
g555
sg13
Nsbaa(lp558
S'BPR_glyc_3hp_scere_mu_0.08_aeroFB_ctrf_evapM'
p559
a(iframed.core.models
Reaction
p560
(dp561
g11
I00
sg12
g559
sg13
Nsbaa(lp562
S'BPR_glyc_3hp_scere_mu_0.107_aeroFB_ctrf_evapM'
p563
a(iframed.core.models
Reaction
p564
(dp565
g11
I00
sg12
g563
sg13
Nsbaa(lp566
S'BPR_glyc_3hp_scere_mu_0.133_aeroFB_ctrf_evapM'
p567
a(iframed.core.models
Reaction
p568
(dp569
g11
I00
sg12
g567
sg13
Nsbaa(lp570
S'BPR_glyc_3hp_scere_mu_0.16_aeroFB_ctrf_evapM'
p571
a(iframed.core.models
Reaction
p572
(dp573
g11
I00
sg12
g571
sg13
Nsbaa(lp574
S'BPR_glyc_3hp_scere_mu_0.187_aeroFB_ctrf_evapM'
p575
a(iframed.core.models
Reaction
p576
(dp577
g11
I00
sg12
g575
sg13
Nsbaa(lp578
S'BPR_glyc_3hp_scere_mu_0.214_aeroFB_ctrf_evapM'
p579
a(iframed.core.models
Reaction
p580
(dp581
g11
I00
sg12
g579
sg13
Nsbaa(lp582
S'BPR_glc_1,3pdo_scere_mu_0.048_anaeFB_ctrf_evapM'
p583
a(iframed.core.models
Reaction
p584
(dp585
g11
I00
sg12
g583
sg13
Nsbaa(lp586
S'BPR_glc_1,3pdo_scere_mu_0.095_anaeFB_ctrf_evapM'
p587
a(iframed.core.models
Reaction
p588
(dp589
g11
I00
sg12
g587
sg13
Nsbaa(lp590
S'BPR_glc_1,3pdo_scere_mu_0.143_anaeFB_ctrf_evapM'
p591
a(iframed.core.models
Reaction
p592
(dp593
g11
I00
sg12
g591
sg13
Nsbaa(lp594
S'BPR_glc_1,3pdo_scere_mu_0.19_anaeFB_ctrf_evapM'
p595
a(iframed.core.models
Reaction
p596
(dp597
g11
I00
sg12
g595
sg13
Nsbaa(lp598
S'BPR_glc_1,3pdo_scere_mu_0.238_anaeFB_ctrf_evapM'
p599
a(iframed.core.models
Reaction
p600
(dp601
g11
I00
sg12
g599
sg13
Nsbaa(lp602
S'BPR_glc_1,3pdo_scere_mu_0.286_anaeFB_ctrf_evapM'
p603
a(iframed.core.models
Reaction
p604
(dp605
g11
I00
sg12
g603
sg13
Nsbaa(lp606
S'BPR_glc_1,3pdo_scere_mu_0.333_anaeFB_ctrf_evapM'
p607
a(iframed.core.models
Reaction
p608
(dp609
g11
I00
sg12
g607
sg13
Nsbaa(lp610
S'BPR_glc_1,3pdo_scere_mu_0.381_anaeFB_ctrf_evapM'
p611
a(iframed.core.models
Reaction
p612
(dp613
g11
I00
sg12
g611
sg13
Nsbaa(lp614
S'BPR_glc_3hp_scere_mu_0.048_anaeFB_ctrf_evapM'
p615
a(iframed.core.models
Reaction
p616
(dp617
g11
I00
sg12
g615
sg13
Nsbaa(lp618
S'BPR_glc_3hp_scere_mu_0.095_anaeFB_ctrf_evapM'
p619
a(iframed.core.models
Reaction
p620
(dp621
g11
I00
sg12
g619
sg13
Nsbaa(lp622
S'BPR_glc_3hp_scere_mu_0.143_anaeFB_ctrf_evapM'
p623
a(iframed.core.models
Reaction
p624
(dp625
g11
I00
sg12
g623
sg13
Nsbaa(lp626
S'BPR_glc_3hp_scere_mu_0.19_anaeFB_ctrf_evapM'
p627
a(iframed.core.models
Reaction
p628
(dp629
g11
I00
sg12
g627
sg13
Nsbaa(lp630
S'BPR_glc_3hp_scere_mu_0.238_anaeFB_ctrf_evapM'
p631
a(iframed.core.models
Reaction
p632
(dp633
g11
I00
sg12
g631
sg13
Nsbaa(lp634
S'BPR_glc_3hp_scere_mu_0.286_anaeFB_ctrf_evapM'
p635
a(iframed.core.models
Reaction
p636
(dp637
g11
I00
sg12
g635
sg13
Nsbaa(lp638
S'BPR_glc_3hp_scere_mu_0.333_anaeFB_ctrf_evapM'
p639
a(iframed.core.models
Reaction
p640
(dp641
g11
I00
sg12
g639
sg13
Nsbaa(lp642
S'BPR_glc_3hp_scere_mu_0.381_anaeFB_ctrf_evapM'
p643
a(iframed.core.models
Reaction
p644
(dp645
g11
I00
sg12
g643
sg13
Nsbaa(lp646
S'PROFIT_bch'
p647
a(iframed.core.models
Reaction
p648
(dp649
g11
I01
sg12
g647
sg13
NsbaatRp650
sS'_m_r_lookup'
p651
NsS'bounds'
p652
g5
((lp653
(lp654
g8
a(NNtp655
aa(lp656
g15
a(NNtp657
aa(lp658
g19
a(NNtp659
aa(lp660
g23
a(NNtp661
aa(lp662
g27
a(NNtp663
aa(lp664
g31
a(NNtp665
aa(lp666
g35
a(NNtp667
aa(lp668
g39
a(NNtp669
aa(lp670
g43
a(NNtp671
aa(lp672
g47
a(NNtp673
aa(lp674
g51
a(NNtp675
aa(lp676
g55
a(NNtp677
aa(lp678
g59
a(NNtp679
aa(lp680
g63
a(NNtp681
aa(lp682
g67
a(NNtp683
aa(lp684
g71
a(NNtp685
aa(lp686
g75
a(NNtp687
aa(lp688
g79
a(NNtp689
aa(lp690
g83
a(NNtp691
aa(lp692
g87
a(NNtp693
aa(lp694
g91
a(NNtp695
aa(lp696
g95
a(NNtp697
aa(lp698
g99
a(NNtp699
aa(lp700
g103
a(NNtp701
aa(lp702
g107
a(NNtp703
aa(lp704
g111
a(NNtp705
aa(lp706
g115
a(NNtp707
aa(lp708
g119
a(NNtp709
aa(lp710
g123
a(NNtp711
aa(lp712
g127
a(NNtp713
aa(lp714
g131
a(NNtp715
aa(lp716
g135
a(NNtp717
aa(lp718
g139
a(NNtp719
aa(lp720
g143
a(I0
Ntp721
aa(lp722
g147
a(NNtp723
aa(lp724
g151
a(I0
Ntp725
aa(lp726
g155
a(I0
Ntp727
aa(lp728
g159
a(I0
Ntp729
aa(lp730
g163
a(I0
Ntp731
aa(lp732
g167
a(I0
Ntp733
aa(lp734
g171
a(NNtp735
aa(lp736
g175
a(NNtp737
aa(lp738
g179
a(NNtp739
aa(lp740
g183
a(NNtp741
aa(lp742
g187
a(NNtp743
aa(lp744
g191
a(NNtp745
aa(lp746
g195
a(I0
Ntp747
aa(lp748
g199
a(NNtp749
aa(lp750
g203
a(I0
Ntp751
aa(lp752
g207
a(I0
Ntp753
aa(lp754
g211
a(I0
Ntp755
aa(lp756
g215
a(NNtp757
aa(lp758
g219
a(NNtp759
aa(lp760
g223
a(NNtp761
aa(lp762
g227
a(NNtp763
aa(lp764
g231
a(NNtp765
aa(lp766
g235
a(NNtp767
aa(lp768
g239
a(NNtp769
aa(lp770
g243
a(NNtp771
aa(lp772
g247
a(NNtp773
aa(lp774
g251
a(NNtp775
aa(lp776
g255
a(NNtp777
aa(lp778
g259
a(I0
Ntp779
aa(lp780
g263
a(I0
Ntp781
aa(lp782
g267
a(I0
Ntp783
aa(lp784
g271
a(I0
Ntp785
aa(lp786
g275
a(I0
Ntp787
aa(lp788
g279
a(I0
Ntp789
aa(lp790
g283
a(I0
Ntp791
aa(lp792
g287
a(I0
Ntp793
aa(lp794
g291
a(I0
Ntp795
aa(lp796
g295
a(I0
Ntp797
aa(lp798
g299
a(I0
Ntp799
aa(lp800
g303
a(I0
Ntp801
aa(lp802
g307
a(I0
Ntp803
aa(lp804
g311
a(I0
Ntp805
aa(lp806
g315
a(I0
Ntp807
aa(lp808
g319
a(I0
Ntp809
aa(lp810
g323
a(I0
Ntp811
aa(lp812
g327
a(I0
Ntp813
aa(lp814
g331
a(I0
Ntp815
aa(lp816
g335
a(I0
Ntp817
aa(lp818
g339
a(I0
Ntp819
aa(lp820
g343
a(I0
Ntp821
aa(lp822
g347
a(I0
Ntp823
aa(lp824
g351
a(I0
Ntp825
aa(lp826
g355
a(I0
Ntp827
aa(lp828
g359
a(I0
Ntp829
aa(lp830
g363
a(I0
Ntp831
aa(lp832
g367
a(I0
Ntp833
aa(lp834
g371
a(I0
Ntp835
aa(lp836
g375
a(I0
Ntp837
aa(lp838
g379
a(I0
Ntp839
aa(lp840
g383
a(I0
Ntp841
aa(lp842
g387
a(I0
Ntp843
aa(lp844
g391
a(I0
Ntp845
aa(lp846
g395
a(I0
Ntp847
aa(lp848
g399
a(I0
Ntp849
aa(lp850
g403
a(I0
Ntp851
aa(lp852
g407
a(I0
Ntp853
aa(lp854
g411
a(I0
Ntp855
aa(lp856
g415
a(I0
Ntp857
aa(lp858
g419
a(I0
Ntp859
aa(lp860
g423
a(I0
Ntp861
aa(lp862
g427
a(I0
Ntp863
aa(lp864
g431
a(I0
Ntp865
aa(lp866
g435
a(I0
Ntp867
aa(lp868
g439
a(I0
Ntp869
aa(lp870
g443
a(I0
Ntp871
aa(lp872
g447
a(I0
Ntp873
aa(lp874
g451
a(I0
Ntp875
aa(lp876
g455
a(I0
Ntp877
aa(lp878
g459
a(I0
Ntp879
aa(lp880
g463
a(I0
Ntp881
aa(lp882
g467
a(I0
Ntp883
aa(lp884
g471
a(I0
Ntp885
aa(lp886
g475
a(I0
Ntp887
aa(lp888
g479
a(I0
Ntp889
aa(lp890
g483
a(I0
Ntp891
aa(lp892
g487
a(I0
Ntp893
aa(lp894
g491
a(I0
Ntp895
aa(lp896
g495
a(I0
Ntp897
aa(lp898
g499
a(I0
Ntp899
aa(lp900
g503
a(I0
Ntp901
aa(lp902
g507
a(I0
Ntp903
aa(lp904
g511
a(I0
Ntp905
aa(lp906
g515
a(I0
Ntp907
aa(lp908
g519
a(I0
Ntp909
aa(lp910
g523
a(I0
Ntp911
aa(lp912
g527
a(I0
Ntp913
aa(lp914
g531
a(I0
Ntp915
aa(lp916
g535
a(I0
Ntp917
aa(lp918
g539
a(I0
Ntp919
aa(lp920
g543
a(I0
Ntp921
aa(lp922
g547
a(I0
Ntp923
aa(lp924
g551
a(I0
Ntp925
aa(lp926
g555
a(I0
Ntp927
aa(lp928
g559
a(I0
Ntp929
aa(lp930
g563
a(I0
Ntp931
aa(lp932
g567
a(I0
Ntp933
aa(lp934
g571
a(I0
Ntp935
aa(lp936
g575
a(I0
Ntp937
aa(lp938
g579
a(I0
Ntp939
aa(lp940
g583
a(I0
Ntp941
aa(lp942
g587
a(I0
Ntp943
aa(lp944
g591
a(I0
Ntp945
aa(lp946
g595
a(I0
Ntp947
aa(lp948
g599
a(I0
Ntp949
aa(lp950
g603
a(I0
Ntp951
aa(lp952
g607
a(I0
Ntp953
aa(lp954
g611
a(I0
Ntp955
aa(lp956
g615
a(I0
Ntp957
aa(lp958
g619
a(I0
Ntp959
aa(lp960
g623
a(I0
Ntp961
aa(lp962
g627
a(I0
Ntp963
aa(lp964
g631
a(I0
Ntp965
aa(lp966
g635
a(I0
Ntp967
aa(lp968
g639
a(I0
Ntp969
aa(lp970
g643
a(I0
Ntp971
aa(lp972
g647
a(NNtp973
aatRp974
sS'compartments'
p975
g5
((lp976
(lp977
S'mkt'
p978
a(iframed.core.models
Compartment
p979
(dp980
g12
g978
sg13
S'market'
p981
sbaa(lp982
S'res'
p983
a(iframed.core.models
Compartment
p984
(dp985
g12
g983
sg13
S'resource'
p986
sbaa(lp987
S'erg'
p988
a(iframed.core.models
Compartment
p989
(dp990
g12
g988
sg13
S'energy'
p991
sbaa(lp992
S'agr'
p993
a(iframed.core.models
Compartment
p994
(dp995
g12
g993
sg13
S'agriculture'
p996
sbaa(lp997
S'bch'
p998
a(iframed.core.models
Compartment
p999
(dp1000
g12
g998
sg13
S'biochemical industry'
p1001
sbaatRp1002
sS'_s_matrix'
p1003
NsS'metabolites'
p1004
g5
((lp1005
(lp1006
S'land_mkt'
p1007
a(iframed.core.models
Metabolite
p1008
(dp1009
S'compartment'
p1010
g978
sg12
g1007
sg13
Nsbaa(lp1011
S'petroleum_mkt'
p1012
a(iframed.core.models
Metabolite
p1013
(dp1014
g1010
g978
sg12
g1012
sg13
Nsbaa(lp1015
S'natural_gas_mkt'
p1016
a(iframed.core.models
Metabolite
p1017
(dp1018
g1010
g978
sg12
g1016
sg13
Nsbaa(lp1019
S'coal_mkt'
p1020
a(iframed.core.models
Metabolite
p1021
(dp1022
g1010
g978
sg12
g1020
sg13
Nsbaa(lp1023
S'co2e_mkt'
p1024
a(iframed.core.models
Metabolite
p1025
(dp1026
g1010
g978
sg12
g1024
sg13
Nsbaa(lp1027
S'po4e_mkt'
p1028
a(iframed.core.models
Metabolite
p1029
(dp1030
g1010
g978
sg12
g1028
sg13
Nsbaa(lp1031
S'waste_organic_mkt'
p1032
a(iframed.core.models
Metabolite
p1033
(dp1034
g1010
g978
sg12
g1032
sg13
Nsbaa(lp1035
S'waste_cellulosic_mkt'
p1036
a(iframed.core.models
Metabolite
p1037
(dp1038
g1010
g978
sg12
g1036
sg13
Nsbaa(lp1039
S'waste_inorganic_mkt'
p1040
a(iframed.core.models
Metabolite
p1041
(dp1042
g1010
g978
sg12
g1040
sg13
Nsbaa(lp1043
S'glc_mkt'
p1044
a(iframed.core.models
Metabolite
p1045
(dp1046
g1010
g978
sg12
g1044
sg13
Nsbaa(lp1047
S'glyc_mkt'
p1048
a(iframed.core.models
Metabolite
p1049
(dp1050
g1010
g978
sg12
g1048
sg13
Nsbaa(lp1051
S'1,3pdo_mkt'
p1052
a(iframed.core.models
Metabolite
p1053
(dp1054
g1010
g978
sg12
g1052
sg13
Nsbaa(lp1055
S'3hp_mkt'
p1056
a(iframed.core.models
Metabolite
p1057
(dp1058
g1010
g978
sg12
g1056
sg13
Nsbaa(lp1059
S'biomass_mkt'
p1060
a(iframed.core.models
Metabolite
p1061
(dp1062
g1010
g978
sg12
g1060
sg13
Nsbaa(lp1063
S'soymeal_mkt'
p1064
a(iframed.core.models
Metabolite
p1065
(dp1066
g1010
g978
sg12
g1064
sg13
Nsbaa(lp1067
S'biodiesel_mkt'
p1068
a(iframed.core.models
Metabolite
p1069
(dp1070
g1010
g978
sg12
g1068
sg13
Nsbaa(lp1071
S'energy_mkt'
p1072
a(iframed.core.models
Metabolite
p1073
(dp1074
g1010
g978
sg12
g1072
sg13
Nsbaa(lp1075
S'dollar_mkt'
p1076
a(iframed.core.models
Metabolite
p1077
(dp1078
g1010
g978
sg12
g1076
sg13
Nsbaa(lp1079
S'lime_mkt'
p1080
a(iframed.core.models
Metabolite
p1081
(dp1082
g1010
g978
sg12
g1080
sg13
Nsbaa(lp1083
S'sulfuric_acid_mkt'
p1084
a(iframed.core.models
Metabolite
p1085
(dp1086
g1010
g978
sg12
g1084
sg13
Nsbaa(lp1087
S'land_res'
p1088
a(iframed.core.models
Metabolite
p1089
(dp1090
g1010
g983
sg12
g1088
sg13
Nsbaa(lp1091
S'petroleum_res'
p1092
a(iframed.core.models
Metabolite
p1093
(dp1094
g1010
g983
sg12
g1092
sg13
Nsbaa(lp1095
S'natural_gas_res'
p1096
a(iframed.core.models
Metabolite
p1097
(dp1098
g1010
g983
sg12
g1096
sg13
Nsbaa(lp1099
S'coal_res'
p1100
a(iframed.core.models
Metabolite
p1101
(dp1102
g1010
g983
sg12
g1100
sg13
Nsbaa(lp1103
S'dollar_res'
p1104
a(iframed.core.models
Metabolite
p1105
(dp1106
g1010
g983
sg12
g1104
sg13
Nsbaa(lp1107
S'land_agr'
p1108
a(iframed.core.models
Metabolite
p1109
(dp1110
g1010
g993
sg12
g1108
sg13
Nsbaa(lp1111
S'po4e_agr'
p1112
a(iframed.core.models
Metabolite
p1113
(dp1114
g1010
g993
sg12
g1112
sg13
Nsbaa(lp1115
S'waste_organic_agr'
p1116
a(iframed.core.models
Metabolite
p1117
(dp1118
g1010
g993
sg12
g1116
sg13
Nsbaa(lp1119
S'waste_cellulosic_agr'
p1120
a(iframed.core.models
Metabolite
p1121
(dp1122
g1010
g993
sg12
g1120
sg13
Nsbaa(lp1123
S'glc_agr'
p1124
a(iframed.core.models
Metabolite
p1125
(dp1126
g1010
g993
sg12
g1124
sg13
Nsbaa(lp1127
S'glyc_agr'
p1128
a(iframed.core.models
Metabolite
p1129
(dp1130
g1010
g993
sg12
g1128
sg13
Nsbaa(lp1131
S'soymeal_agr'
p1132
a(iframed.core.models
Metabolite
p1133
(dp1134
g1010
g993
sg12
S'soymeal_agr'
p1135
sg13
Nsbaa(lp1136
S'biodiesel_agr'
p1137
a(iframed.core.models
Metabolite
p1138
(dp1139
g1010
g993
sg12
g1137
sg13
Nsbaa(lp1140
S'energy_agr'
p1141
a(iframed.core.models
Metabolite
p1142
(dp1143
g1010
g993
sg12
g1141
sg13
Nsbaa(lp1144
S'corn_agr'
p1145
a(iframed.core.models
Metabolite
p1146
(dp1147
g1010
g993
sg12
g1145
sg13
Nsbaa(lp1148
S'starch_agr'
p1149
a(iframed.core.models
Metabolite
p1150
(dp1151
g1010
g993
sg12
g1149
sg13
Nsbaa(lp1152
S'soy_agr'
p1153
a(iframed.core.models
Metabolite
p1154
(dp1155
g1010
g993
sg12
g1153
sg13
Nsbaa(lp1156
S'soyoil_agr'
p1157
a(iframed.core.models
Metabolite
p1158
(dp1159
g1010
g993
sg12
g1157
sg13
Nsbaa(lp1160
S'dollar_agr'
p1161
a(iframed.core.models
Metabolite
p1162
(dp1163
g1010
g993
sg12
g1161
sg13
Nsbaa(lp1164
S'petroleum_erg'
p1165
a(iframed.core.models
Metabolite
p1166
(dp1167
g1010
g988
sg12
g1165
sg13
Nsbaa(lp1168
S'natural_gas_erg'
p1169
a(iframed.core.models
Metabolite
p1170
(dp1171
g1010
g988
sg12
g1169
sg13
Nsbaa(lp1172
S'coal_erg'
p1173
a(iframed.core.models
Metabolite
p1174
(dp1175
g1010
g988
sg12
g1173
sg13
Nsbaa(lp1176
S'co2e_erg'
p1177
a(iframed.core.models
Metabolite
p1178
(dp1179
g1010
g988
sg12
g1177
sg13
Nsbaa(lp1180
S'energy_erg'
p1181
a(iframed.core.models
Metabolite
p1182
(dp1183
g1010
g988
sg12
g1181
sg13
Nsbaa(lp1184
S'biodiesel_erg'
p1185
a(iframed.core.models
Metabolite
p1186
(dp1187
g1010
g988
sg12
g1185
sg13
Nsbaa(lp1188
S'dollar_erg'
p1189
a(iframed.core.models
Metabolite
p1190
(dp1191
g1010
g988
sg12
g1189
sg13
Nsbaa(lp1192
S'land_bch'
p1193
a(iframed.core.models
Metabolite
p1194
(dp1195
g1010
g998
sg12
g1193
sg13
Nsbaa(lp1196
S'waste_organic_bch'
p1197
a(iframed.core.models
Metabolite
p1198
(dp1199
g1010
g998
sg12
g1197
sg13
Nsbaa(lp1200
S'waste_inorganic_bch'
p1201
a(iframed.core.models
Metabolite
p1202
(dp1203
g1010
g998
sg12
g1201
sg13
Nsbaa(lp1204
S'glc_bch'
p1205
a(iframed.core.models
Metabolite
p1206
(dp1207
g1010
g998
sg12
g1205
sg13
Nsbaa(lp1208
S'glyc_bch'
p1209
a(iframed.core.models
Metabolite
p1210
(dp1211
g1010
g998
sg12
g1209
sg13
Nsbaa(lp1212
S'1,3pdo_bch'
p1213
a(iframed.core.models
Metabolite
p1214
(dp1215
g1010
g998
sg12
g1213
sg13
Nsbaa(lp1216
S'3hp_bch'
p1217
a(iframed.core.models
Metabolite
p1218
(dp1219
g1010
g998
sg12
g1217
sg13
Nsbaa(lp1220
S'biomass_bch'
p1221
a(iframed.core.models
Metabolite
p1222
(dp1223
g1010
g998
sg12
g1221
sg13
Nsbaa(lp1224
S'energy_bch'
p1225
a(iframed.core.models
Metabolite
p1226
(dp1227
g1010
g998
sg12
g1225
sg13
Nsbaa(lp1228
S'dollar_bch'
p1229
a(iframed.core.models
Metabolite
p1230
(dp1231
g1010
g998
sg12
g1229
sg13
Nsbaa(lp1232
S'lime_bch'
p1233
a(iframed.core.models
Metabolite
p1234
(dp1235
g1010
g998
sg12
g1233
sg13
Nsbaa(lp1236
S'sulfuric_acid_bch'
p1237
a(iframed.core.models
Metabolite
p1238
(dp1239
g1010
g998
sg12
g1237
sg13
Nsbaa(lp1240
S'gypsum_bch'
p1241
a(iframed.core.models
Metabolite
p1242
(dp1243
g1010
g998
sg12
g1241
sg13
NsbaatRp1244
sS'objective'
p1245
g5
((lp1246
(lp1247
g8
aI0
aa(lp1248
g15
aI0
aa(lp1249
g19
aI0
aa(lp1250
g23
aI0
aa(lp1251
g27
aI0
aa(lp1252
g31
aI0
aa(lp1253
g35
aI0
aa(lp1254
g39
aI0
aa(lp1255
g43
aI0
aa(lp1256
g47
aI0
aa(lp1257
g51
aI0
aa(lp1258
g55
aI0
aa(lp1259
g59
aI0
aa(lp1260
g63
aI0
aa(lp1261
g67
aI0
aa(lp1262
g71
aI0
aa(lp1263
g75
aI0
aa(lp1264
g79
aI0
aa(lp1265
g83
aI0
aa(lp1266
g87
aI0
aa(lp1267
g91
aI0
aa(lp1268
g95
aI0
aa(lp1269
g99
aI0
aa(lp1270
g103
aI0
aa(lp1271
g107
aI0
aa(lp1272
g111
aI0
aa(lp1273
g115
aI0
aa(lp1274
g119
aI0
aa(lp1275
g123
aI0
aa(lp1276
g127
aI0
aa(lp1277
g131
aI0
aa(lp1278
g135
aI0
aa(lp1279
g139
aI0
aa(lp1280
g143
aI0
aa(lp1281
g147
aI0
aa(lp1282
g151
aI0
aa(lp1283
g155
aI0
aa(lp1284
g159
aI0
aa(lp1285
g163
aI0
aa(lp1286
g167
aI0
aa(lp1287
g171
aI0
aa(lp1288
g175
aI0
aa(lp1289
g179
aI0
aa(lp1290
g183
aI0
aa(lp1291
g187
aI0
aa(lp1292
g191
aI0
aa(lp1293
g195
aI0
aa(lp1294
g199
aI0
aa(lp1295
g203
aI0
aa(lp1296
g207
aI0
aa(lp1297
g211
aI0
aa(lp1298
g215
aI0
aa(lp1299
g219
aI0
aa(lp1300
g223
aI0
aa(lp1301
g227
aI0
aa(lp1302
g231
aI0
aa(lp1303
g235
aI0
aa(lp1304
g239
aI0
aa(lp1305
g243
aI0
aa(lp1306
g247
aI0
aa(lp1307
g251
aI0
aa(lp1308
g255
aI0
aa(lp1309
g259
aI0
aa(lp1310
g263
aI0
aa(lp1311
g267
aI0
aa(lp1312
g271
aI0
aa(lp1313
g275
aI0
aa(lp1314
g279
aI0
aa(lp1315
g283
aI0
aa(lp1316
g287
aI0
aa(lp1317
g291
aI0
aa(lp1318
g295
aI0
aa(lp1319
g299
aI0
aa(lp1320
g303
aI0
aa(lp1321
g307
aI0
aa(lp1322
g311
aI0
aa(lp1323
g315
aI0
aa(lp1324
g319
aI0
aa(lp1325
g323
aI0
aa(lp1326
g327
aI0
aa(lp1327
g331
aI0
aa(lp1328
g335
aI0
aa(lp1329
g339
aI0
aa(lp1330
g343
aI0
aa(lp1331
g347
aI0
aa(lp1332
g351
aI0
aa(lp1333
g355
aI0
aa(lp1334
g359
aI0
aa(lp1335
g363
aI0
aa(lp1336
g367
aI0
aa(lp1337
g371
aI0
aa(lp1338
g375
aI0
aa(lp1339
g379
aI0
aa(lp1340
g383
aI0
aa(lp1341
g387
aI0
aa(lp1342
g391
aI0
aa(lp1343
g395
aI0
aa(lp1344
g399
aI0
aa(lp1345
g403
aI0
aa(lp1346
g407
aI0
aa(lp1347
g411
aI0
aa(lp1348
g415
aI0
aa(lp1349
g419
aI0
aa(lp1350
g423
aI0
aa(lp1351
g427
aI0
aa(lp1352
g431
aI0
aa(lp1353
g435
aI0
aa(lp1354
g439
aI0
aa(lp1355
g443
aI0
aa(lp1356
g447
aI0
aa(lp1357
g451
aI0
aa(lp1358
g455
aI0
aa(lp1359
g459
aI0
aa(lp1360
g463
aI0
aa(lp1361
g467
aI0
aa(lp1362
g471
aI0
aa(lp1363
g475
aI0
aa(lp1364
g479
aI0
aa(lp1365
g483
aI0
aa(lp1366
g487
aI0
aa(lp1367
g491
aI0
aa(lp1368
g495
aI0
aa(lp1369
g499
aI0
aa(lp1370
g503
aI0
aa(lp1371
g507
aI0
aa(lp1372
g511
aI0
aa(lp1373
g515
aI0
aa(lp1374
g519
aI0
aa(lp1375
g523
aI0
aa(lp1376
g527
aI0
aa(lp1377
g531
aI0
aa(lp1378
g535
aI0
aa(lp1379
g539
aI0
aa(lp1380
g543
aI0
aa(lp1381
g547
aI0
aa(lp1382
g551
aI0
aa(lp1383
g555
aI0
aa(lp1384
g559
aI0
aa(lp1385
g563
aI0
aa(lp1386
g567
aI0
aa(lp1387
g571
aI0
aa(lp1388
g575
aI0
aa(lp1389
g579
aI0
aa(lp1390
g583
aI0
aa(lp1391
g587
aI0
aa(lp1392
g591
aI0
aa(lp1393
g595
aI0
aa(lp1394
g599
aI0
aa(lp1395
g603
aI0
aa(lp1396
g607
aI0
aa(lp1397
g611
aI0
aa(lp1398
g615
aI0
aa(lp1399
g619
aI0
aa(lp1400
g623
aI0
aa(lp1401
g627
aI0
aa(lp1402
g631
aI0
aa(lp1403
g635
aI0
aa(lp1404
g639
aI0
aa(lp1405
g643
aI0
aa(lp1406
g647
aI0
aatRp1407
sS'_r_m_lookup'
p1408
NsS'stoichiometry'
p1409
g5
((lp1410
(lp1411
(S'co2e_mkt'
g8
tp1412
aI-1
aa(lp1413
(S'po4e_mkt'
g15
tp1414
aI-1
aa(lp1415
(S'waste_organic_mkt'
g19
tp1416
aI-1
aa(lp1417
(S'waste_cellulosic_mkt'
g23
tp1418
aI-1
aa(lp1419
(S'waste_inorganic_mkt'
g27
tp1420
aI-1
aa(lp1421
(S'lime_mkt'
g31
tp1422
aI-1
aa(lp1423
(S'sulfuric_acid_mkt'
g35
tp1424
aI-1
aa(lp1425
(S'glc_mkt'
g39
tp1426
aI-1
aa(lp1427
(S'dollar_mkt'
p1428
g39
tp1429
aF0.42999999999999999
aa(lp1430
(S'glyc_mkt'
g43
tp1431
aI-1
aa(lp1432
(g1428
g43
tp1433
aF0.17999999999999999
aa(lp1434
(S'1,3pdo_mkt'
g47
tp1435
aI-1
aa(lp1436
(g1428
g47
tp1437
aF1.8
aa(lp1438
(S'3hp_mkt'
g51
tp1439
aI-1
aa(lp1440
(g1428
g51
tp1441
aF2.3999999999999999
aa(lp1442
(S'biomass_mkt'
g55
tp1443
aI-1
aa(lp1444
(S'soymeal_mkt'
g59
tp1445
aI-1
aa(lp1446
(S'biodiesel_mkt'
g63
tp1447
aI-1
aa(lp1448
(g1428
g63
tp1449
aF0.9071999999999999
aa(lp1450
(S'energy_mkt'
g67
tp1451
aI-1
aa(lp1452
(g1428
g67
tp1453
aF0.02
aa(lp1454
(S'land_res'
g71
tp1455
aI-1
aa(lp1456
(S'petroleum_res'
g75
tp1457
aI-1
aa(lp1458
(S'natural_gas_res'
g79
tp1459
aI-1
aa(lp1460
(S'coal_res'
g83
tp1461
aI-1
aa(lp1462
(S'land_res'
g87
tp1463
aI-1
aa(lp1464
(S'land_mkt'
g87
tp1465
aI1
aa(lp1466
(g1428
g87
tp1467
aI-41
aa(lp1468
(S'dollar_res'
p1469
g87
tp1470
aI41
aa(lp1471
(g1469
g91
tp1472
aI-1
aa(lp1473
(S'petroleum_res'
g95
tp1474
aI-1
aa(lp1475
(S'petroleum_mkt'
g95
tp1476
aI1
aa(lp1477
(g1428
g95
tp1478
aF-0.7649999999999999
aa(lp1479
(g1469
g95
tp1480
aF0.7649999999999999
aa(lp1481
(S'natural_gas_res'
g99
tp1482
aI-1
aa(lp1483
(S'natural_gas_mkt'
g99
tp1484
aI1
aa(lp1485
(g1428
g99
tp1486
aF-0.56280000000000008
aa(lp1487
(g1469
g99
tp1488
aF0.56280000000000008
aa(lp1489
(S'coal_res'
g103
tp1490
aI-1
aa(lp1491
(S'coal_mkt'
g103
tp1492
aI1
aa(lp1493
(g1428
g103
tp1494
aF-0.055199999999999999
aa(lp1495
(g1469
g103
tp1496
aF0.055199999999999999
aa(lp1497
(S'land_agr'
g107
tp1498
aI-1
aa(lp1499
(S'land_mkt'
g107
tp1500
aI1
aa(lp1501
(g1428
g107
tp1502
aI-41
aa(lp1503
(S'dollar_agr'
p1504
g107
tp1505
aI41
aa(lp1506
(S'po4e_agr'
g111
tp1507
aI-1
aa(lp1508
(S'po4e_mkt'
g111
tp1509
aI1
aa(lp1510
(S'waste_organic_agr'
g115
tp1511
aI-1
aa(lp1512
(S'waste_organic_mkt'
g115
tp1513
aI1
aa(lp1514
(S'waste_cellulosic_agr'
g119
tp1515
aI-1
aa(lp1516
(S'waste_cellulosic_mkt'
g119
tp1517
aI1
aa(lp1518
(S'glc_agr'
g123
tp1519
aI-1
aa(lp1520
(S'glc_mkt'
g123
tp1521
aI1
aa(lp1522
(g1428
g123
tp1523
aF-0.42999999999999999
aa(lp1524
(g1504
g123
tp1525
aF0.42999999999999999
aa(lp1526
(S'glyc_agr'
g127
tp1527
aI-1
aa(lp1528
(S'glyc_mkt'
g127
tp1529
aI1
aa(lp1530
(g1428
g127
tp1531
aF-0.17999999999999999
aa(lp1532
(g1504
g127
tp1533
aF0.17999999999999999
aa(lp1534
(S'soymeal_agr'
g131
tp1535
aI-1
aa(lp1536
(S'soymeal_mkt'
g131
tp1537
aI1
aa(lp1538
(S'biodiesel_agr'
g135
tp1539
aI-1
aa(lp1540
(S'biodiesel_mkt'
g135
tp1541
aI1
aa(lp1542
(g1428
g135
tp1543
aF-0.9071999999999999
aa(lp1544
(g1504
g135
tp1545
aF0.9071999999999999
aa(lp1546
(S'energy_agr'
g139
tp1547
aI-1
aa(lp1548
(S'energy_mkt'
g139
tp1549
aI1
aa(lp1550
(g1428
g139
tp1551
aF-0.02
aa(lp1552
(g1504
g139
tp1553
aF0.02
aa(lp1554
(S'biodiesel_agr'
g143
tp1555
aF0.95999999999999996
aa(lp1556
(S'energy_agr'
g143
tp1557
aF-1.4676883116883117
aa(lp1558
(S'soyoil_agr'
g143
tp1559
aI-1
aa(lp1560
(S'glyc_agr'
g143
tp1561
aF0.20499999999999999
aa(lp1562
(g1504
g147
tp1563
aI-1
aa(lp1564
(S'soy_agr'
g151
tp1565
aI-1
aa(lp1566
(S'energy_agr'
g151
tp1567
aF-1.0668961038961038
aa(lp1568
(S'soyoil_agr'
g151
tp1569
aF0.17999999999999999
aa(lp1570
(S'waste_cellulosic_agr'
g151
tp1571
aF0.073999999999999996
aa(lp1572
(S'soymeal_agr'
g151
tp1573
aF0.57399999999999995
aa(lp1574
(S'corn_agr'
g155
tp1575
aI1
aa(lp1576
(S'land_agr'
g155
tp1577
aF-0.00011695906432748539
aa(lp1578
(S'po4e_agr'
g155
tp1579
aF0.0031071999999999996
aa(lp1580
(S'energy_agr'
g155
tp1581
aF-2.75
aa(lp1582
(S'glc_agr'
g159
tp1583
aF0.94999999999999996
aa(lp1584
(S'waste_organic_agr'
g159
tp1585
aF0.050000000000000044
aa(lp1586
(S'starch_agr'
g159
tp1587
aI-1
aa(lp1588
(S'corn_agr'
g163
tp1589
aI-1
aa(lp1590
(S'waste_cellulosic_agr'
g163
tp1591
aF0.45562130177514792
aa(lp1592
(S'energy_agr'
g163
tp1593
aF-2.1730177514792901
aa(lp1594
(S'starch_agr'
g163
tp1595
aF0.54437869822485208
aa(lp1596
(S'soy_agr'
g167
tp1597
aI1
aa(lp1598
(S'po4e_agr'
g167
tp1599
aF0.0020772000000000004
aa(lp1600
(S'land_agr'
g167
tp1601
aF-0.00037037037037037035
aa(lp1602
(S'energy_agr'
g167
tp1603
aF-2.1299999999999999
aa(lp1604
(S'petroleum_erg'
g171
tp1605
aI-1
aa(lp1606
(S'petroleum_mkt'
g171
tp1607
aI1
aa(lp1608
(g1428
g171
tp1609
aF-0.7649999999999999
aa(lp1610
(S'dollar_erg'
p1611
g171
tp1612
aF0.7649999999999999
aa(lp1613
(S'natural_gas_erg'
g175
tp1614
aI-1
aa(lp1615
(S'natural_gas_mkt'
g175
tp1616
aI1
aa(lp1617
(g1428
g175
tp1618
aF-0.56280000000000008
aa(lp1619
(g1611
g175
tp1620
aF0.56280000000000008
aa(lp1621
(S'coal_erg'
g179
tp1622
aI-1
aa(lp1623
(S'coal_mkt'
g179
tp1624
aI1
aa(lp1625
(g1428
g179
tp1626
aF-0.055199999999999999
aa(lp1627
(g1611
g179
tp1628
aF0.055199999999999999
aa(lp1629
(S'co2e_erg'
g183
tp1630
aI-1
aa(lp1631
(S'co2e_mkt'
g183
tp1632
aI1
aa(lp1633
(S'energy_erg'
g187
tp1634
aI-1
aa(lp1635
(S'energy_mkt'
g187
tp1636
aI1
aa(lp1637
(g1428
g187
tp1638
aF-0.02
aa(lp1639
(g1611
g187
tp1640
aF0.02
aa(lp1641
(S'biodiesel_erg'
g191
tp1642
aI-1
aa(lp1643
(S'biodiesel_mkt'
g191
tp1644
aI1
aa(lp1645
(g1428
g191
tp1646
aF-0.9071999999999999
aa(lp1647
(g1611
g191
tp1648
aF0.9071999999999999
aa(lp1649
(S'co2e_erg'
g195
tp1650
aF0.057000000000000002
aa(lp1651
(S'natural_gas_erg'
g195
tp1652
aF-0.018656716417910446
aa(lp1653
(S'energy_erg'
g195
tp1654
aI1
aa(lp1655
(g1611
g199
tp1656
aI-1
aa(lp1657
(S'co2e_erg'
g203
tp1658
aF0.074999999999999997
aa(lp1659
(S'energy_erg'
g203
tp1660
aI1
aa(lp1661
(S'petroleum_erg'
g203
tp1662
aF-0.023529411764705882
aa(lp1663
(S'coal_erg'
g207
tp1664
aF-0.041666666666666664
aa(lp1665
(S'energy_erg'
g207
tp1666
aI1
aa(lp1667
(S'co2e_erg'
g207
tp1668
aF0.095000000000000001
aa(lp1669
(S'biodiesel_erg'
g211
tp1670
aF-0.026455026455026457
aa(lp1671
(S'energy_erg'
g211
tp1672
aI1
aa(lp1673
(S'co2e_erg'
g211
tp1674
aF0.049000000000000002
aa(lp1675
(S'land_bch'
g215
tp1676
aI-1
aa(lp1677
(S'land_mkt'
g215
tp1678
aI1
aa(lp1679
(g1428
g215
tp1680
aI-41
aa(lp1681
(S'dollar_bch'
p1682
g215
tp1683
aI41
aa(lp1684
(S'waste_organic_bch'
g219
tp1685
aI-1
aa(lp1686
(S'waste_organic_mkt'
g219
tp1687
aI1
aa(lp1688
(S'waste_inorganic_bch'
g223
tp1689
aI-1
aa(lp1690
(S'waste_inorganic_mkt'
g223
tp1691
aI1
aa(lp1692
(S'glc_bch'
g227
tp1693
aI-1
aa(lp1694
(S'glc_mkt'
g227
tp1695
aI1
aa(lp1696
(g1428
g227
tp1697
aF-0.42999999999999999
aa(lp1698
(g1682
g227
tp1699
aF0.42999999999999999
aa(lp1700
(S'glyc_bch'
g231
tp1701
aI-1
aa(lp1702
(S'glyc_mkt'
g231
tp1703
aI1
aa(lp1704
(g1428
g231
tp1705
aF-0.17999999999999999
aa(lp1706
(g1682
g231
tp1707
aF0.17999999999999999
aa(lp1708
(S'1,3pdo_bch'
g235
tp1709
aI-1
aa(lp1710
(S'1,3pdo_mkt'
g235
tp1711
aI1
aa(lp1712
(g1428
g235
tp1713
aF-1.8
aa(lp1714
(g1682
g235
tp1715
aF1.8
aa(lp1716
(S'3hp_bch'
g239
tp1717
aI-1
aa(lp1718
(S'3hp_mkt'
g239
tp1719
aI1
aa(lp1720
(g1428
g239
tp1721
aF-2.3999999999999999
aa(lp1722
(g1682
g239
tp1723
aF2.3999999999999999
aa(lp1724
(S'biomass_bch'
g243
tp1725
aI-1
aa(lp1726
(S'biomass_mkt'
g243
tp1727
aI1
aa(lp1728
(S'energy_bch'
g247
tp1729
aI-1
aa(lp1730
(S'energy_mkt'
g247
tp1731
aI1
aa(lp1732
(g1428
g247
tp1733
aF-0.02
aa(lp1734
(g1682
g247
tp1735
aF0.02
aa(lp1736
(S'lime_bch'
g251
tp1737
aI-1
aa(lp1738
(S'lime_mkt'
g251
tp1739
aI1
aa(lp1740
(S'sulfuric_acid_bch'
g255
tp1741
aI-1
aa(lp1742
(S'sulfuric_acid_mkt'
g255
tp1743
aI1
aa(lp1744
(S'gypsum_bch'
g259
tp1745
aI-1
aa(lp1746
(S'waste_inorganic_bch'
g259
tp1747
aI1
aa(lp1748
(S'glc_bch'
g263
tp1749
aI-1
aa(lp1750
(S'energy_bch'
g263
tp1751
acnumpy.core.multiarray
scalar
p1752
(cnumpy
dtype
p1753
(S'f8'
I0
I1
tRp1754
(I3
S'<'
NNNI-1
I-1
I0
tbS'\xf8\xc5n\n\xb4\xcd2\xc0'
tRp1755
aa(lp1756
(S'1,3pdo_bch'
g263
tp1757
aF0.52861988997515352
aa(lp1758
(S'biomass_bch'
g263
tp1759
aF0.055458126572921852
aa(lp1760
(S'waste_organic_bch'
g263
tp1761
aF0.41592198345192455
aa(lp1762
(S'glc_bch'
g267
tp1763
aI-1
aa(lp1764
(S'energy_bch'
g267
tp1765
ag1752
(g1754
S'\xb0\xb3\xaew\xfb\xb6(\xc0'
tRp1766
aa(lp1767
(S'1,3pdo_bch'
g267
tp1768
aF0.46961326992000413
aa(lp1769
(S'biomass_bch'
g267
tp1770
aF0.11091625314584638
aa(lp1771
(S'waste_organic_bch'
g267
tp1772
aF0.41947047693414946
aa(lp1773
(S'glc_bch'
g271
tp1774
aI-1
aa(lp1775
(S'energy_bch'
g271
tp1776
ag1752
(g1754
S't[y\x1d\x19\xdb"\xc0'
tRp1777
aa(lp1778
(S'1,3pdo_bch'
g271
tp1779
aF0.41060664986486056
aa(lp1780
(S'biomass_bch'
g271
tp1781
aF0.16637437971876515
aa(lp1782
(S'waste_organic_bch'
g271
tp1783
aF0.42301897041637426
aa(lp1784
(S'glc_bch'
g275
tp1785
aI-1
aa(lp1786
(S'energy_bch'
g275
tp1787
ag1752
(g1754
S'\x96;\x1f\xd4\xa1\xff\x1d\xc0'
tRp1788
aa(lp1789
(S'1,3pdo_bch'
g275
tp1790
aF0.35160002980970506
aa(lp1791
(S'biomass_bch'
g275
tp1792
aF0.22183250629169665
aa(lp1793
(S'waste_organic_bch'
g275
tp1794
aF0.42656746389859823
aa(lp1795
(S'glc_bch'
g279
tp1796
aI-1
aa(lp1797
(S'energy_bch'
g279
tp1798
ag1752
(g1754
S'\x8e\xf7r\xd4\r\xd6\x17\xc0'
tRp1799
aa(lp1800
(S'1,3pdo_bch'
g279
tp1801
aF0.29259340975455833
aa(lp1802
(S'biomass_bch'
g279
tp1803
aF0.27729063286461825
aa(lp1804
(S'waste_organic_bch'
g279
tp1805
aF0.43011595738082342
aa(lp1806
(S'glc_bch'
g283
tp1807
aI-1
aa(lp1808
(S'energy_bch'
g283
tp1809
ag1752
(g1754
S'\x8e~\x1ddU\xc1\x12\xc0'
tRp1810
aa(lp1811
(S'1,3pdo_bch'
g283
tp1812
aF0.23347275727793743
aa(lp1813
(S'biomass_bch'
g283
tp1814
aF0.33274875879924914
aa(lp1815
(S'waste_organic_bch'
g283
tp1816
aF0.43377848392281337
aa(lp1817
(S'glc_bch'
g287
tp1818
aI-1
aa(lp1819
(S'energy_bch'
g287
tp1820
ag1752
(g1754
S'\xaa\xa7\xf0\xb2\xde4\x10\xc0'
tRp1821
aa(lp1822
(S'1,3pdo_bch'
g287
tp1823
aF0.17403973489632635
aa(lp1824
(S'biomass_bch'
g287
tp1825
aF0.38820688526579172
aa(lp1826
(S'waste_organic_bch'
g287
tp1827
aF0.43775337983788193
aa(lp1828
(S'glc_bch'
g291
tp1829
aI-1
aa(lp1830
(S'energy_bch'
g291
tp1831
ag1752
(g1754
S'\x10\xff\xc6\xfc\xe3v\x0f\xc0'
tRp1832
aa(lp1833
(S'1,3pdo_bch'
g291
tp1834
aF0.11428127045336053
aa(lp1835
(S'biomass_bch'
g291
tp1836
aF0.44366501173232498
aa(lp1837
(S'waste_organic_bch'
g291
tp1838
aF0.44205371781431446
aa(lp1839
(S'glc_bch'
g295
tp1840
aI-1
aa(lp1841
(S'energy_bch'
g295
tp1842
ag1752
(g1754
S'\xbcN\xe4\x9e\xdf\x19=\xc0'
tRp1843
aa(lp1844
(S'3hp_bch'
g295
tp1845
aF0.86916023147994237
aa(lp1846
(S'biomass_bch'
g295
tp1847
aF0.055458126571188912
aa(lp1848
(S'waste_organic_bch'
g295
tp1849
aF0.075381641948868705
aa(lp1850
(S'lime_bch'
g295
tp1851
aF-0.376300634955474
aa(lp1852
(S'sulfuric_acid_bch'
g295
tp1853
aF-0.49807455791334804
aa(lp1854
(S'gypsum_bch'
g295
tp1855
aF0.69139409150462372
aa(lp1856
(S'glc_bch'
g299
tp1857
aI-1
aa(lp1858
(S'energy_bch'
g299
tp1859
ag1752
(g1754
S'+\xa7\xa9:{v3\xc0'
tRp1860
aa(lp1861
(S'3hp_bch'
g299
tp1862
aF0.77242623219065543
aa(lp1863
(S'biomass_bch'
g299
tp1864
aF0.11091625314237699
aa(lp1865
(S'waste_organic_bch'
g299
tp1866
aF0.11665751466696757
aa(lp1867
(S'lime_bch'
g299
tp1868
aF-0.33441990452633324
aa(lp1869
(S'sulfuric_acid_bch'
g299
tp1870
aF-0.44264088505746613
aa(lp1871
(S'gypsum_bch'
g299
tp1872
aF0.61444474070155619
aa(lp1873
(S'glc_bch'
g303
tp1874
aI-1
aa(lp1875
(S'energy_bch'
g303
tp1876
ag1752
(g1754
S'F.\xd5\x05\xac\xfc-\xc0'
tRp1877
aa(lp1878
(S'3hp_bch'
g303
tp1879
aF0.67569223290136771
aa(lp1880
(S'biomass_bch'
g303
tp1881
aF0.16637437971356558
aa(lp1882
(S'waste_organic_bch'
g303
tp1883
aF0.15793338738506665
aa(lp1884
(S'lime_bch'
g303
tp1885
aF-0.29253917409719216
aa(lp1886
(S'sulfuric_acid_bch'
g303
tp1887
aF-0.38720721220158383
aa(lp1888
(S'gypsum_bch'
g303
tp1889
aF0.53749538989848811
aa(lp1890
(S'glc_bch'
g307
tp1891
aI-1
aa(lp1892
(S'energy_bch'
g307
tp1893
ag1752
(g1754
S"\xfc\xd0\r\xcb+\xeb'\xc0"
tRp1894
aa(lp1895
(S'3hp_bch'
g307
tp1896
aF0.57895823361208176
aa(lp1897
(S'biomass_bch'
g307
tp1898
aF0.22183250628475307
aa(lp1899
(S'waste_organic_bch'
g307
tp1900
aF0.19920926010316517
aa(lp1901
(S'lime_bch'
g307
tp1902
aF-0.25065844366805184
aa(lp1903
(S'sulfuric_acid_bch'
g307
tp1904
aF-0.33177353934570242
aa(lp1905
(S'gypsum_bch'
g307
tp1906
aF0.4605460390954213
aa(lp1907
(S'glc_bch'
g311
tp1908
aI-1
aa(lp1909
(S'energy_bch'
g311
tp1910
ag1752
(g1754
S'\xa4 \xb0\x11\xc2\xf7"\xc0'
tRp1911
aa(lp1912
(S'3hp_bch'
g311
tp1913
aF0.481665454026524
aa(lp1914
(S'biomass_bch'
g311
tp1915
aF0.27729063287546918
aa(lp1916
(S'waste_organic_bch'
g311
tp1917
aF0.2410439130980068
aa(lp1918
(S'lime_bch'
g311
tp1919
aF-0.20853579078011508
aa(lp1920
(S'sulfuric_acid_bch'
g311
tp1921
aF-0.2760196559705681
aa(lp1922
(S'gypsum_bch'
g311
tp1923
aF0.38315219327141498
aa(lp1924
(S'glc_bch'
g315
tp1925
aI-1
aa(lp1926
(S'energy_bch'
g315
tp1927
ag1752
(g1754
S'\xfdY:\x19\x9d]\x1d\xc0'
tRp1928
aa(lp1929
(S'3hp_bch'
g315
tp1930
aF0.38389881643156776
aa(lp1931
(S'biomass_bch'
g315
tp1932
aF0.33274875879924298
aa(lp1933
(S'waste_organic_bch'
g315
tp1934
aF0.28335242476918926
aa(lp1935
(S'lime_bch'
g315
tp1936
aF-0.16620798231400402
aa(lp1937
(S'sulfuric_acid_bch'
g315
tp1938
aF-0.21999422701615315
aa(lp1939
(S'gypsum_bch'
g315
tp1940
aF0.30538140587087975
aa(lp1941
(S'glc_bch'
g319
tp1942
aI-1
aa(lp1943
(S'energy_bch'
g319
tp1944
ag1752
(g1754
S'\x9cT\xf18\x0e\xa0\x15\xc0'
tRp1945
aa(lp1946
(S'3hp_bch'
g319
tp1947
aF0.28613296056800913
aa(lp1948
(S'biomass_bch'
g319
tp1949
aF0.3882068852657875
aa(lp1950
(S'waste_organic_bch'
g319
tp1951
aF0.32566015416620331
aa(lp1952
(S'lime_bch'
g319
tp1953
aF-0.12388051229644437
aa(lp1954
(S'sulfuric_acid_bch'
g319
tp1955
aF-0.16396924603497282
aa(lp1956
(S'gypsum_bch'
g319
tp1957
aF0.22761124031709948
aa(lp1958
(S'glc_bch'
g323
tp1959
aI-1
aa(lp1960
(S'energy_bch'
g323
tp1961
ag1752
(g1754
S'h\x83-\x86\xe2v\x0f\xc0'
tRp1962
aa(lp1963
(S'3hp_bch'
g323
tp1964
aF0.18818173406707248
aa(lp1965
(S'biomass_bch'
g323
tp1966
aF0.44366501173232548
aa(lp1967
(S'waste_organic_bch'
g323
tp1968
aF0.36815325420060202
aa(lp1969
(S'lime_bch'
g323
tp1970
aF-0.081472786549249387
aa(lp1971
(S'sulfuric_acid_bch'
g323
tp1972
aF-0.10783803792222554
aa(lp1973
(S'gypsum_bch'
g323
tp1974
aF0.14969361729945968
aa(lp1975
(S'glyc_bch'
g327
tp1976
aI-1
aa(lp1977
(S'energy_bch'
g327
tp1978
ag1752
(g1754
S'\x86\x9c\xb9\x8b\xef\xf86\xc0'
tRp1979
aa(lp1980
(S'1,3pdo_bch'
g327
tp1981
aF0.61342092124304559
aa(lp1982
(S'biomass_bch'
g327
tp1983
aF0.066533768762155721
aa(lp1984
(S'waste_organic_bch'
g327
tp1985
aF0.32004530999479869
aa(lp1986
(S'glyc_bch'
g331
tp1987
aI-1
aa(lp1988
(S'energy_bch'
g331
tp1989
ag1752
(g1754
S'\xb0\xa3\x06\xc6C\x83-\xc0'
tRp1990
aa(lp1991
(S'1,3pdo_bch'
g331
tp1992
aF0.53957969555253549
aa(lp1993
(S'biomass_bch'
g331
tp1994
aF0.13306753752431125
aa(lp1995
(S'waste_organic_bch'
g331
tp1996
aF0.32735276692315324
aa(lp1997
(S'glyc_bch'
g335
tp1998
aI-1
aa(lp1999
(S'energy_bch'
g335
tp2000
ag1752
(g1754
S'\xf2\xca\x14e0 &\xc0'
tRp2001
aa(lp2002
(S'1,3pdo_bch'
g335
tp2003
aF0.46573846986202277
aa(lp2004
(S'biomass_bch'
g335
tp2005
aF0.19960130628646747
aa(lp2006
(S'waste_organic_bch'
g335
tp2007
aF0.33466022385150973
aa(lp2008
(S'glyc_bch'
g339
tp2009
aI-1
aa(lp2010
(S'energy_bch'
g339
tp2011
ag1752
(g1754
S'\xc2"\xe5n\x15@!\xc0'
tRp2012
aa(lp2013
(S'1,3pdo_bch'
g339
tp2014
aF0.39189724050718877
aa(lp2015
(S'biomass_bch'
g339
tp2016
aF0.26613507835032052
aa(lp2017
(S'waste_organic_bch'
g339
tp2018
aF0.34196768114249071
aa(lp2019
(S'glyc_bch'
g343
tp2020
aI-1
aa(lp2021
(S'energy_bch'
g343
tp2022
ag1752
(g1754
S'GA#}\xad\xc6\x1a\xc0'
tRp2023
aa(lp2024
(S'1,3pdo_bch'
g343
tp2025
aF0.31805601390059762
aa(lp2026
(S'biomass_bch'
g343
tp2027
aF0.33266884793789941
aa(lp2028
(S'waste_organic_bch'
g343
tp2029
aF0.34927513816150296
aa(lp2030
(S'glyc_bch'
g347
tp2031
aI-1
aa(lp2032
(S'energy_bch'
g347
tp2033
ag1752
(g1754
S'xl8\xba\x0f,\x14\xc0'
tRp2034
aa(lp2035
(S'1,3pdo_bch'
g347
tp2036
aF0.24421410298128959
aa(lp2037
(S'biomass_bch'
g347
tp2038
aF0.39920261174750465
aa(lp2039
(S'waste_organic_bch'
g347
tp2040
aF0.3565832852712057
aa(lp2041
(S'glyc_bch'
g351
tp2042
aI-1
aa(lp2043
(S'energy_bch'
g351
tp2044
ag1752
(g1754
S'\xe1\x98\x94\xab\xc8r\x10\xc0'
tRp2045
aa(lp2046
(S'1,3pdo_bch'
g351
tp2047
aF0.17037276232257867
aa(lp2048
(S'biomass_bch'
g351
tp2049
aF0.46573638037209325
aa(lp2050
(S'waste_organic_bch'
g351
tp2051
aF0.36389085730532805
aa(lp2052
(S'glyc_bch'
g355
tp2053
aI-1
aa(lp2054
(S'energy_bch'
g355
tp2055
ag1752
(g1754
S'\xb2\xda\x93?M\xdd\x0f\xc0'
tRp2056
aa(lp2057
(S'1,3pdo_bch'
g355
tp2058
aF0.096130678135885592
aa(lp2059
(S'biomass_bch'
g355
tp2060
aF0.53227014899668512
aa(lp2061
(S'waste_organic_bch'
g355
tp2062
aF0.37159917286742933
aa(lp2063
(S'glyc_bch'
g359
tp2064
aI-1
aa(lp2065
(S'energy_bch'
g359
tp2066
ag1752
(g1754
S'f}\xe0n\xe0\xd9@\xc0'
tRp2067
aa(lp2068
(S'3hp_bch'
g359
tp2069
aF0.95005881820189697
aa(lp2070
(S'biomass_bch'
g359
tp2071
aF0.066533768730698481
aa(lp2072
(S'waste_organic_bch'
g359
tp2073
aF-0.016592586932595466
aa(lp2074
(S'lime_bch'
g359
tp2075
aF-0.4113254651857266
aa(lp2076
(S'sulfuric_acid_bch'
g359
tp2077
aF-0.54443370592538187
aa(lp2078
(S'gypsum_bch'
g359
tp2079
aF0.75574678833176168
aa(lp2080
(S'glyc_bch'
g363
tp2081
aI-1
aa(lp2082
(S'energy_bch'
g363
tp2083
ag1752
(g1754
S'L}*\xca9+6\xc0'
tRp2084
aa(lp2085
(S'3hp_bch'
g363
tp2086
aF0.84188208949150289
aa(lp2087
(S'biomass_bch'
g363
tp2088
aF0.13306753746140607
aa(lp2089
(S'waste_organic_bch'
g363
tp2090
aF0.025050373047091075
aa(lp2091
(S'lime_bch'
g363
tp2092
aF-0.36449063516616331
aa(lp2093
(S'sulfuric_acid_bch'
g363
tp2094
aF-0.48244274686228861
aa(lp2095
(S'gypsum_bch'
g363
tp2096
aF0.66969504739866181
aa(lp2097
(S'glyc_bch'
g367
tp2098
aI-1
aa(lp2099
(S'energy_bch'
g367
tp2100
ag1752
(g1754
S'~.\xb6"\x03\xdd0\xc0'
tRp2101
aa(lp2102
(S'3hp_bch'
g367
tp2103
aF0.73370536078111359
aa(lp2104
(S'biomass_bch'
g367
tp2105
aF0.199601306192111
aa(lp2106
(S'waste_organic_bch'
g367
tp2107
aF0.066693333026775409
aa(lp2108
(S'lime_bch'
g367
tp2109
aF-0.31765580514660213
aa(lp2110
(S'sulfuric_acid_bch'
g367
tp2111
aF-0.42045178779919817
aa(lp2112
(S'gypsum_bch'
g367
tp2113
aF0.58364330646556584
aa(lp2114
(S'glyc_bch'
g371
tp2115
aI-1
aa(lp2116
(S'energy_bch'
g371
tp2117
ag1752
(g1754
S'\xb2QM\xe1\xd4\x9c*\xc0'
tRp2118
aa(lp2119
(S'3hp_bch'
g371
tp2120
aF0.62527691090257664
aa(lp2121
(S'biomass_bch'
g371
tp2122
aF0.26613507493178257
aa(lp2123
(S'waste_organic_bch'
g371
tp2124
aF0.10858801416564082
aa(lp2125
(S'lime_bch'
g371
tp2126
aF-0.27071199310971555
aa(lp2127
(S'sulfuric_acid_bch'
g371
tp2128
aF-0.35831657925827654
aa(lp2129
(S'gypsum_bch'
g371
tp2130
aF0.49739132796744967
aa(lp2131
(S'glyc_bch'
g375
tp2132
aI-1
aa(lp2133
(S'energy_bch'
g375
tp2134
ag1752
(g1754
S'\xba\xc3\xb6*\x18\xc8$\xc0'
tRp2135
aa(lp2136
(S'3hp_bch'
g375
tp2137
aF0.51320201990256831
aa(lp2138
(S'biomass_bch'
g375
tp2139
aF0.3326688437262254
aa(lp2140
(S'waste_organic_bch'
g375
tp2141
aF0.15412913637120629
aa(lp2142
(S'lime_bch'
g375
tp2143
aF-0.22218946398518563
aa(lp2144
(S'sulfuric_acid_bch'
g375
tp2145
aF-0.2940917680367981
aa(lp2146
(S'gypsum_bch'
g375
tp2147
aF0.40823870151617991
aa(lp2148
(S'glyc_bch'
g379
tp2149
aI-1
aa(lp2150
(S'energy_bch'
g379
tp2151
ag1752
(g1754
S'\xce]/T(6\x1f\xc0'
tRp2152
aa(lp2153
(S'3hp_bch'
g379
tp2154
aF0.39629040465276827
aa(lp2155
(S'biomass_bch'
g379
tp2156
aF0.39920261174751248
aa(lp2157
(S'waste_organic_bch'
g379
tp2158
aF0.20450698359971919
aa(lp2159
(S'lime_bch'
g379
tp2160
aF-0.1715728878249301
aa(lp2161
(S'sulfuric_acid_bch'
g379
tp2162
aF-0.2270952592557548
aa(lp2163
(S'gypsum_bch'
g379
tp2164
aF0.31523858820641792
aa(lp2165
(S'glyc_bch'
g383
tp2166
aI-1
aa(lp2167
(S'energy_bch'
g383
tp2168
ag1752
(g1754
S'`\xd1\x0fU\xa0\xc6\x15\xc0'
tRp2169
aa(lp2170
(S'3hp_bch'
g383
tp2171
aF0.27727669920929371
aa(lp2172
(S'biomass_bch'
g383
tp2173
aF0.46573638037209492
aa(lp2174
(S'waste_organic_bch'
g383
tp2175
aF0.25698692041861143
aa(lp2176
(S'lime_bch'
g383
tp2177
aF-0.12004621724713949
aa(lp2178
(S'sulfuric_acid_bch'
g383
tp2179
aF-0.15889414215741002
aa(lp2180
(S'gypsum_bch'
g383
tp2181
aF0.22056631746575084
aa(lp2182
(S'glyc_bch'
g387
tp2183
aI-1
aa(lp2184
(S'energy_bch'
g387
tp2185
ag1752
(g1754
S'\xea\x93\x92\xf5/\xdd\x0f\xc0'
tRp2186
aa(lp2187
(S'3hp_bch'
g387
tp2188
aF0.15798864740744234
aa(lp2189
(S'biomass_bch'
g387
tp2190
aF0.53227014899667968
aa(lp2191
(S'waste_organic_bch'
g387
tp2192
aF0.30974120359587803
aa(lp2193
(S'lime_bch'
g387
tp2194
aF-0.068400769135453718
aa(lp2195
(S'sulfuric_acid_bch'
g387
tp2196
aF-0.090535810156433277
aa(lp2197
(S'gypsum_bch'
g387
tp2198
aF0.12567581141663597
aa(lp2199
(S'glc_bch'
g391
tp2200
aI-1
aa(lp2201
(S'energy_bch'
g391
tp2202
ag1752
(g1754
S'\x1cO\xf1\xdf\x06\x1e#\xc0'
tRp2203
aa(lp2204
(S'1,3pdo_bch'
g391
tp2205
aF0.48608200334263596
aa(lp2206
(S'biomass_bch'
g391
tp2207
aF0.015968025825645656
aa(lp2208
(S'waste_organic_bch'
g391
tp2209
aF0.49794997083171838
aa(lp2210
(S'glc_bch'
g395
tp2211
aI-1
aa(lp2212
(S'energy_bch'
g395
tp2213
ag1752
(g1754
S'\x87{\xfc\x8b\xc3\x0e\x1f\xc0'
tRp2214
aa(lp2215
(S'1,3pdo_bch'
g395
tp2216
aF0.44588592014557993
aa(lp2217
(S'biomass_bch'
g395
tp2218
aF0.031936051430900454
aa(lp2219
(S'waste_organic_bch'
g395
tp2220
aF0.52217802842351957
aa(lp2221
(S'glc_bch'
g399
tp2222
aI-1
aa(lp2223
(S'energy_bch'
g399
tp2224
ag1752
(g1754
S'\nZJ\x14x\x99\x1a\xc0'
tRp2225
aa(lp2226
(S'1,3pdo_bch'
g399
tp2227
aF0.40060698440354625
aa(lp2228
(S'biomass_bch'
g399
tp2229
aF0.047904077146347528
aa(lp2230
(S'waste_organic_bch'
g399
tp2231
aF0.55148893845010627
aa(lp2232
(S'glc_bch'
g403
tp2233
aI-1
aa(lp2234
(S'energy_bch'
g403
tp2235
ag1752
(g1754
S'\x9a\xfeR\x03\x04\xd0\x16\xc0'
tRp2236
aa(lp2237
(S'1,3pdo_bch'
g403
tp2238
aF0.35238854556843641
aa(lp2239
(S'biomass_bch'
g403
tp2240
aF0.063872102767630098
aa(lp2241
(S'waste_organic_bch'
g403
tp2242
aF0.58373935166393343
aa(lp2243
(S'glc_bch'
g407
tp2244
aI-1
aa(lp2245
(S'energy_bch'
g407
tp2246
ag1752
(g1754
S'r\xe9\xe2\x83\xf1\x03\x13\xc0'
tRp2247
aa(lp2248
(S'1,3pdo_bch'
g407
tp2249
aF0.29792383849501342
aa(lp2250
(S'biomass_bch'
g407
tp2251
aF0.079840128459535226
aa(lp2252
(S'waste_organic_bch'
g407
tp2253
aF0.62223603304545139
aa(lp2254
(S'glc_bch'
g411
tp2255
aI-1
aa(lp2256
(S'energy_bch'
g411
tp2257
ag1752
(g1754
S'|\x8f\x89\xf6\xc9\xe9\x0e\xc0'
tRp2258
aa(lp2259
(S'1,3pdo_bch'
g411
tp2260
aF0.24345913142159337
aa(lp2261
(S'biomass_bch'
g411
tp2262
aF0.095808154151440519
aa(lp2263
(S'waste_organic_bch'
g411
tp2264
aF0.66073271442696613
aa(lp2265
(S'glc_bch'
g415
tp2266
aI-1
aa(lp2267
(S'energy_bch'
g415
tp2268
ag1752
(g1754
S'\x98Ph\x9e\x94K\n\xc0'
tRp2269
aa(lp2270
(S'1,3pdo_bch'
g415
tp2271
aF0.16709045615980547
aa(lp2272
(S'biomass_bch'
g415
tp2273
aF0.11177617920011791
aa(lp2274
(S'waste_organic_bch'
g415
tp2275
aF0.7211333646400766
aa(lp2276
(S'glc_bch'
g419
tp2277
aI-1
aa(lp2278
(S'energy_bch'
g419
tp2279
ag1752
(g1754
S':\xe7\x1c\xf3\xd5\x0e\n\xc0'
tRp2280
aa(lp2281
(S'1,3pdo_bch'
g419
tp2282
aF0.083545662311290764
aa(lp2283
(S'biomass_bch'
g419
tp2284
aF0.12774420480013332
aa(lp2285
(S'waste_organic_bch'
g419
tp2286
aF0.78871013288857594
aa(lp2287
(S'glc_bch'
g423
tp2288
aI-1
aa(lp2289
(S'energy_bch'
g423
tp2290
ag1752
(g1754
S't\xc4<\xe5\xbe\x911\xc0'
tRp2291
aa(lp2292
(S'3hp_bch'
g423
tp2293
aF0.9303287862118419
aa(lp2294
(S'biomass_bch'
g423
tp2295
aF0.015968025776504972
aa(lp2296
(S'waste_organic_bch'
g423
tp2297
aF0.053703188011653136
aa(lp2298
(S'lime_bch'
g423
tp2299
aF-0.40278339975676902
aa(lp2300
(S'sulfuric_acid_bch'
g423
tp2301
aF-0.53312735917234388
aa(lp2302
(S'gypsum_bch'
g423
tp2303
aF0.74005206709504101
aa(lp2304
(S'glc_bch'
g427
tp2305
aI-1
aa(lp2306
(S'energy_bch'
g427
tp2307
ag1752
(g1754
S'\xc5f\xfa\xa7x\xea.\xc0'
tRp2308
aa(lp2309
(S'3hp_bch'
g427
tp2310
aF0.91065757242367495
aa(lp2311
(S'biomass_bch'
g427
tp2312
aF0.031936051553017007
aa(lp2313
(S'waste_organic_bch'
g427
tp2314
aF0.057406376023308038
aa(lp2315
(S'lime_bch'
g427
tp2316
aF-0.39426679951353422
aa(lp2317
(S'sulfuric_acid_bch'
g427
tp2318
aF-0.52185471834468278
aa(lp2319
(S'gypsum_bch'
g427
tp2320
aF0.72440413419007499
aa(lp2321
(S'glc_bch'
g431
tp2322
aI-1
aa(lp2323
(S'energy_bch'
g431
tp2324
ag1752
(g1754
S'\r\xab/\xb5S\xc7+\xc0'
tRp2325
aa(lp2326
(S'3hp_bch'
g431
tp2327
aF0.85350552634636589
aa(lp2328
(S'biomass_bch'
g431
tp2329
aF0.04790407758933448
aa(lp2330
(S'waste_organic_bch'
g431
tp2331
aF0.098590396064299646
aa(lp2332
(S'lime_bch'
g431
tp2333
aF-0.36952297156448455
aa(lp2334
(S'sulfuric_acid_bch'
g431
tp2335
aF-0.48910358793995956
aa(lp2336
(S'gypsum_bch'
g431
tp2337
aF0.67894118553678817
aa(lp2338
(S'glc_bch'
g435
tp2339
aI-1
aa(lp2340
(S'energy_bch'
g435
tp2341
ag1752
(g1754
S"\x93GsDS+'\xc0"
tRp2342
aa(lp2343
(S'3hp_bch'
g435
tp2344
aF0.72752820179516209
aa(lp2345
(S'biomass_bch'
g435
tp2346
aF0.063872103452445039
aa(lp2347
(S'waste_organic_bch'
g435
tp2348
aF0.20859969475239287
aa(lp2349
(S'lime_bch'
g435
tp2350
aF-0.31498142041931598
aa(lp2351
(S'sulfuric_acid_bch'
g435
tp2352
aF-0.41691195058661712
aa(lp2353
(S'gypsum_bch'
g435
tp2354
aF0.57872953904905688
aa(lp2355
(S'glc_bch'
g439
tp2356
aI-1
aa(lp2357
(S'energy_bch'
g439
tp2358
ag1752
(g1754
S'4\xad\xa14V\xe8"\xc0'
tRp2359
aa(lp2360
(S'3hp_bch'
g439
tp2361
aF0.60155088749254815
aa(lp2362
(S'biomass_bch'
g439
tp2363
aF0.079840128016514203
aa(lp2364
(S'waste_organic_bch'
g439
tp2365
aF0.31860898449093766
aa(lp2366
(S'lime_bch'
g439
tp2367
aF-0.26043987371124744
aa(lp2368
(S'sulfuric_acid_bch'
g439
tp2369
aF-0.344720319106256
aa(lp2370
(S'gypsum_bch'
g439
tp2371
aF0.47851790071380912
aa(lp2372
(S'glc_bch'
g443
tp2373
aI-1
aa(lp2374
(S'energy_bch'
g443
tp2375
ag1752
(g1754
S'tHn\xb3\xfa\xa1\x1d\xc0'
tRp2376
aa(lp2377
(S'3hp_bch'
g443
tp2378
aF0.47557356499106235
aa(lp2379
(S'biomass_bch'
g443
tp2380
aF0.095808153619816566
aa(lp2381
(S'waste_organic_bch'
g443
tp2382
aF0.42861828138912111
aa(lp2383
(S'lime_bch'
g443
tp2384
aF-0.2058983234534989
aa(lp2385
(S'sulfuric_acid_bch'
g443
tp2386
aF-0.27252868292750987
aa(lp2387
(S'gypsum_bch'
g443
tp2388
aF0.37830625585657462
aa(lp2389
(S'glc_bch'
g447
tp2390
aI-1
aa(lp2391
(S'energy_bch'
g447
tp2392
ag1752
(g1754
S'\x10\x00\xb5b\xa4\xad\x14\xc0'
tRp2393
aa(lp2394
(S'3hp_bch'
g447
tp2395
aF0.33285708992076002
aa(lp2396
(S'biomass_bch'
g447
tp2397
aF0.11177617919671358
aa(lp2398
(S'waste_organic_bch'
g447
tp2399
aF0.55536673088252642
aa(lp2400
(S'lime_bch'
g447
tp2401
aF-0.14410960114148275
aa(lp2402
(S'sulfuric_acid_bch'
g447
tp2403
aF-0.19074463131880187
aa(lp2404
(S'gypsum_bch'
g447
tp2405
aF0.26477905563486148
aa(lp2406
(S'glc_bch'
g451
tp2407
aI-1
aa(lp2408
(S'energy_bch'
g451
tp2409
ag1752
(g1754
S'\xb93\x16D\xd3\x0e\n\xc0'
tRp2410
aa(lp2411
(S'3hp_bch'
g451
tp2412
aF0.16846762657612613
aa(lp2413
(S'biomass_bch'
g451
tp2414
aF0.12774420479624232
aa(lp2415
(S'waste_organic_bch'
g451
tp2416
aF0.70378816862763161
aa(lp2417
(S'lime_bch'
g451
tp2418
aF-0.072937615590274396
aa(lp2419
(S'sulfuric_acid_bch'
g451
tp2420
aF-0.096540816745308483
aa(lp2421
(S'gypsum_bch'
g451
tp2422
aF0.13401156358271424
aa(lp2423
(S'glc_bch'
g455
tp2424
aI-1
aa(lp2425
(S'energy_bch'
g455
tp2426
ag1752
(g1754
S'c\xe2\xb5\x18sd0\xc0'
tRp2427
aa(lp2428
(S'1,3pdo_bch'
g455
tp2429
aF0.58167506448838757
aa(lp2430
(S'biomass_bch'
g455
tp2431
aF0.021954258309842888
aa(lp2432
(S'waste_organic_bch'
g455
tp2433
aF0.39637067720176955
aa(lp2434
(S'glc_bch'
g459
tp2435
aI-1
aa(lp2436
(S'energy_bch'
g459
tp2437
ag1752
(g1754
S'\xd11\x03\xfe\xafT&\xc0'
tRp2438
aa(lp2439
(S'1,3pdo_bch'
g459
tp2440
aF0.5623781728894327
aa(lp2441
(S'biomass_bch'
g459
tp2442
aF0.043908516619686741
aa(lp2443
(S'waste_organic_bch'
g459
tp2444
aF0.3937133104908806
aa(lp2445
(S'glc_bch'
g463
tp2446
aI-1
aa(lp2447
(S'energy_bch'
g463
tp2448
ag1752
(g1754
S'\xda\xb4z\x90\xc0["\xc0'
tRp2449
aa(lp2450
(S'1,3pdo_bch'
g463
tp2451
aF0.54308128129047739
aa(lp2452
(S'biomass_bch'
g463
tp2453
aF0.065862774929530493
aa(lp2454
(S'waste_organic_bch'
g463
tp2455
aF0.39105594377999203
aa(lp2456
(S'glc_bch'
g467
tp2457
aI-1
aa(lp2458
(S'energy_bch'
g467
tp2459
ag1752
(g1754
S'\xed3k\xcf\x1a\xd8\x1f\xc0'
tRp2460
aa(lp2461
(S'1,3pdo_bch'
g467
tp2462
aF0.51863705418869743
aa(lp2463
(S'biomass_bch'
g467
tp2464
aF0.087817033239372802
aa(lp2465
(S'waste_organic_bch'
g467
tp2466
aF0.39354591257192978
aa(lp2467
(S'glc_bch'
g471
tp2468
aI-1
aa(lp2469
(S'energy_bch'
g471
tp2470
ag1752
(g1754
S'\x02$>Y\x00%\x1c\xc0'
tRp2471
aa(lp2472
(S'1,3pdo_bch'
g471
tp2473
aF0.49367404662992953
aa(lp2474
(S'biomass_bch'
g471
tp2475
aF0.10977129154922095
aa(lp2476
(S'waste_organic_bch'
g471
tp2477
aF0.39655466182084953
aa(lp2478
(S'glc_bch'
g475
tp2479
aI-1
aa(lp2480
(S'energy_bch'
g475
tp2481
ag1752
(g1754
S'\xb2\xc1\x06\xa1\xe7/\x16\xc0'
tRp2482
aa(lp2483
(S'1,3pdo_bch'
g475
tp2484
aF0.40757659544309338
aa(lp2485
(S'biomass_bch'
g475
tp2486
aF0.13172554985905638
aa(lp2487
(S'waste_organic_bch'
g475
tp2488
aF0.46069785469785024
aa(lp2489
(S'glc_bch'
g479
tp2490
aI-1
aa(lp2491
(S'energy_bch'
g479
tp2492
ag1752
(g1754
S'\x93\xea\xbc\xd5\x15\xe4\x0f\xc0'
tRp2493
aa(lp2494
(S'1,3pdo_bch'
g479
tp2495
aF0.27171773029540014
aa(lp2496
(S'biomass_bch'
g479
tp2497
aF0.15367980816890078
aa(lp2498
(S'waste_organic_bch'
g479
tp2499
aF0.57460246153569916
aa(lp2500
(S'glc_bch'
g483
tp2501
aI-1
aa(lp2502
(S'energy_bch'
g483
tp2503
ag1752
(g1754
S'"V \x03j\xe1\x0e\xc0'
tRp2504
aa(lp2505
(S'1,3pdo_bch'
g483
tp2506
aF0.13585886514770298
aa(lp2507
(S'biomass_bch'
g483
tp2508
aF0.17563406647874508
aa(lp2509
(S'waste_organic_bch'
g483
tp2510
aF0.68850706837355191
aa(lp2511
(S'glc_bch'
g487
tp2512
aI-1
aa(lp2513
(S'energy_bch'
g487
tp2514
ag1752
(g1754
S'J\x12\xf3\xe3\x1b\xa16\xc0'
tRp2515
aa(lp2516
(S'3hp_bch'
g487
tp2517
aF0.90935344875155588
aa(lp2518
(S'biomass_bch'
g487
tp2519
aF0.021954258309847194
aa(lp2520
(S'waste_organic_bch'
g487
tp2521
aF0.068692292938596938
aa(lp2522
(S'lime_bch'
g487
tp2523
aF-0.39370218260159467
aa(lp2524
(S'sulfuric_acid_bch'
g487
tp2525
aF-0.5211073868424706
aa(lp2526
(S'gypsum_bch'
g487
tp2527
aF0.72336673812794827
aa(lp2528
(S'glc_bch'
g491
tp2529
aI-1
aa(lp2530
(S'energy_bch'
g491
tp2531
ag1752
(g1754
S'*t>\xdf\x1c\x83/\xc0'
tRp2532
aa(lp2533
(S'3hp_bch'
g491
tp2534
aF0.87142118321739725
aa(lp2535
(S'biomass_bch'
g491
tp2536
aF0.043908516619682834
aa(lp2537
(S'waste_organic_bch'
g491
tp2538
aF0.084670300162919945
aa(lp2539
(S'lime_bch'
g491
tp2540
aF-0.37727950806033211
aa(lp2541
(S'sulfuric_acid_bch'
g491
tp2542
aF-0.49937020225636952
aa(lp2543
(S'gypsum_bch'
g491
tp2544
aF0.69319261911303909
aa(lp2545
(S'glc_bch'
g495
tp2546
aI-1
aa(lp2547
(S'energy_bch'
g495
tp2548
ag1752
(g1754
S'\x13\xe8\xff%\xa1\xf9)\xc0'
tRp2549
aa(lp2550
(S'3hp_bch'
g495
tp2551
aF0.83348891768323941
aa(lp2552
(S'biomass_bch'
g495
tp2553
aF0.065862774929542248
aa(lp2554
(S'waste_organic_bch'
g495
tp2555
aF0.10064830738721833
aa(lp2556
(S'lime_bch'
g495
tp2557
aF-0.36085683351906989
aa(lp2558
(S'sulfuric_acid_bch'
g495
tp2559
aF-0.477633017670269
aa(lp2560
(S'gypsum_bch'
g495
tp2561
aF0.66301850009813057
aa(lp2562
(S'glc_bch'
g499
tp2563
aI-1
aa(lp2564
(S'energy_bch'
g499
tp2565
ag1752
(g1754
S'V\x17\xa8\xf2)\xaa&\xc0'
tRp2566
aa(lp2567
(S'3hp_bch'
g499
tp2568
aF0.79555665214908189
aa(lp2569
(S'biomass_bch'
g499
tp2570
aF0.087817033239381295
aa(lp2571
(S'waste_organic_bch'
g499
tp2572
aF0.11662631461153679
aa(lp2573
(S'lime_bch'
g499
tp2574
aF-0.34443415897780782
aa(lp2575
(S'sulfuric_acid_bch'
g499
tp2576
aF-0.45589583308416864
aa(lp2577
(S'gypsum_bch'
g499
tp2578
aF0.63284438108322238
aa(lp2579
(S'glc_bch'
g503
tp2580
aI-1
aa(lp2581
(S'energy_bch'
g503
tp2582
ag1752
(g1754
S'\xe2\x01\x9fG\xf2\xad!\xc0'
tRp2583
aa(lp2584
(S'3hp_bch'
g503
tp2585
aF0.64617492463449688
aa(lp2586
(S'biomass_bch'
g503
tp2587
aF0.10977129154921604
aa(lp2588
(S'waste_organic_bch'
g503
tp2589
aF0.24405378381628706
aa(lp2590
(S'lime_bch'
g503
tp2591
aF-0.27975973316017744
aa(lp2592
(S'sulfuric_acid_bch'
g503
tp2593
aF-0.37029224102212643
aa(lp2594
(S'gypsum_bch'
g503
tp2595
aF0.51401514794346248
aa(lp2596
(S'glc_bch'
g507
tp2597
aI-1
aa(lp2598
(S'energy_bch'
g507
tp2599
ag1752
(g1754
S'\xb4R|\xbd_]\x1a\xc0'
tRp2600
aa(lp2601
(S'3hp_bch'
g507
tp2602
aF0.48692657622806207
aa(lp2603
(S'biomass_bch'
g507
tp2604
aF0.1317255498590596
aa(lp2605
(S'waste_organic_bch'
g507
tp2606
aF0.38134787391287833
aa(lp2607
(S'lime_bch'
g507
tp2608
aF-0.21081357979221257
aa(lp2609
(S'sulfuric_acid_bch'
g507
tp2610
aF-0.27903455589321791
aa(lp2611
(S'gypsum_bch'
g507
tp2612
aF0.38733727753215424
aa(lp2613
(S'glc_bch'
g511
tp2614
aI-1
aa(lp2615
(S'energy_bch'
g511
tp2616
ag1752
(g1754
S'\xefI9\x15\xb42\x11\xc0'
tRp2617
aa(lp2618
(S'3hp_bch'
g511
tp2619
aF0.32767822782163103
aa(lp2620
(S'biomass_bch'
g511
tp2621
aF0.15367980816890225
aa(lp2622
(S'waste_organic_bch'
g511
tp2623
aF0.51864196400946672
aa(lp2624
(S'lime_bch'
g511
tp2625
aF-0.14186742642424932
aa(lp2626
(S'sulfuric_acid_bch'
g511
tp2627
aF-0.18777687076431152
aa(lp2628
(S'gypsum_bch'
g511
tp2629
aF0.26065940712084906
aa(lp2630
(S'glc_bch'
g515
tp2631
aI-1
aa(lp2632
(S'energy_bch'
g515
tp2633
ag1752
(g1754
S'\xc0\x86Ivf\xe1\x0e\xc0'
tRp2634
aa(lp2635
(S'3hp_bch'
g515
tp2636
aF0.16842987941520213
aa(lp2637
(S'biomass_bch'
g515
tp2638
aF0.17563406647874499
aa(lp2639
(S'waste_organic_bch'
g515
tp2640
aF0.65593605410605282
aa(lp2641
(S'lime_bch'
g515
tp2642
aF-0.072921273056286984
aa(lp2643
(S'sulfuric_acid_bch'
g515
tp2644
aF-0.09651918563540636
aa(lp2645
(S'gypsum_bch'
g515
tp2646
aF0.13398153670954555
aa(lp2647
(S'glyc_bch'
g519
tp2648
aI-1
aa(lp2649
(S'energy_bch'
g519
tp2650
ag1752
(g1754
S'\x04+\x1a_\x9b\x91\x84\xc0'
tRp2651
aa(lp2652
(S'1,3pdo_bch'
g519
tp2653
aF0.61028669509570777
aa(lp2654
(S'biomass_bch'
g519
tp2655
aF0.064400837218824836
aa(lp2656
(S'waste_organic_bch'
g519
tp2657
aF0.3253124676854674
aa(lp2658
(S'glyc_bch'
g523
tp2659
aI-1
aa(lp2660
(S'energy_bch'
g523
tp2661
ag1752
(g1754
S'q\xa3\x13\xbc \xb4A\xc0'
tRp2662
aa(lp2663
(S'1,3pdo_bch'
g523
tp2664
aF0.53400085820874355
aa(lp2665
(S'biomass_bch'
g523
tp2666
aF0.12880167443764967
aa(lp2667
(S'waste_organic_bch'
g523
tp2668
aF0.33719746735360673
aa(lp2669
(S'glyc_bch'
g527
tp2670
aI-1
aa(lp2671
(S'energy_bch'
g527
tp2672
ag1752
(g1754
S't\xf2\xa1*\x81\x06.\xc0'
tRp2673
aa(lp2674
(S'1,3pdo_bch'
g527
tp2675
aF0.45771502132178538
aa(lp2676
(S'biomass_bch'
g527
tp2677
aF0.1932025116564702
aa(lp2678
(S'waste_organic_bch'
g527
tp2679
aF0.3490824670217445
aa(lp2680
(S'glyc_bch'
g531
tp2681
aI-1
aa(lp2682
(S'energy_bch'
g531
tp2683
ag1752
(g1754
S'0E\xf3$\xdd\x12&\xc0'
tRp2684
aa(lp2685
(S'1,3pdo_bch'
g531
tp2686
aF0.3814291844348226
aa(lp2687
(S'biomass_bch'
g531
tp2688
aF0.25760334887528857
aa(lp2689
(S'waste_organic_bch'
g531
tp2690
aF0.36096746668988883
aa(lp2691
(S'glyc_bch'
g535
tp2692
aI-1
aa(lp2693
(S'energy_bch'
g535
tp2694
ag1752
(g1754
S's\x01\xa5\xf6\xad[ \xc0'
tRp2695
aa(lp2696
(S'1,3pdo_bch'
g535
tp2697
aF0.30514334754785427
aa(lp2698
(S'biomass_bch'
g535
tp2699
aF0.32200418609412218
aa(lp2700
(S'waste_organic_bch'
g535
tp2701
aF0.3728524663580236
aa(lp2702
(S'glyc_bch'
g539
tp2703
aI-1
aa(lp2704
(S'energy_bch'
g539
tp2705
ag1752
(g1754
S'\xdb\xb3J\x00\xb2\x7f\x1d\xc0'
tRp2706
aa(lp2707
(S'1,3pdo_bch'
g539
tp2708
aF0.22885751066089088
aa(lp2709
(S'biomass_bch'
g539
tp2710
aF0.38640502331294641
aa(lp2711
(S'waste_organic_bch'
g539
tp2712
aF0.38473746602616271
aa(lp2713
(S'glyc_bch'
g543
tp2714
aI-1
aa(lp2715
(S'energy_bch'
g543
tp2716
ag1752
(g1754
S'S\xab\x93\xc0\x1b"\x1b\xc0'
tRp2717
aa(lp2718
(S'1,3pdo_bch'
g543
tp2719
aF0.15257167377392558
aa(lp2720
(S'biomass_bch'
g543
tp2721
aF0.45080586053177174
aa(lp2722
(S'waste_organic_bch'
g543
tp2723
aF0.39662246569430265
aa(lp2724
(S'glyc_bch'
g547
tp2725
aI-1
aa(lp2726
(S'energy_bch'
g547
tp2727
ag1752
(g1754
S'\xf9:\xb95\xc8U\x19\xc0'
tRp2728
aa(lp2729
(S'1,3pdo_bch'
g547
tp2730
aF0.076285836886960737
aa(lp2731
(S'biomass_bch'
g547
tp2732
aF0.51520669775059869
aa(lp2733
(S'waste_organic_bch'
g547
tp2734
aF0.40850746536244059
aa(lp2735
(S'glyc_bch'
g551
tp2736
aI-1
aa(lp2737
(S'energy_bch'
g551
tp2738
ag1752
(g1754
S'\x14\xe3\x05\xfcw\x9d\x84\xc0'
tRp2739
aa(lp2740
(S'3hp_bch'
g551
tp2741
aF0.86323735115215172
aa(lp2742
(S'biomass_bch'
g551
tp2743
aF0.064400837218822976
aa(lp2744
(S'waste_organic_bch'
g551
tp2745
aF0.072361811629025274
aa(lp2746
(S'lime_bch'
g551
tp2747
aF-0.37373633950408425
aa(lp2748
(S'sulfuric_acid_bch'
g551
tp2749
aF-0.49468043575498044
aa(lp2750
(S'gypsum_bch'
g551
tp2751
aF0.68668259606913806
aa(lp2752
(S'glyc_bch'
g555
tp2753
aI-1
aa(lp2754
(S'energy_bch'
g555
tp2755
ag1752
(g1754
S'@\x1a\x90\xabD\xb6A\xc0'
tRp2756
aa(lp2757
(S'3hp_bch'
g555
tp2758
aF0.79518357727034894
aa(lp2759
(S'biomass_bch'
g555
tp2760
aF0.12880167443765994
aa(lp2761
(S'waste_organic_bch'
g555
tp2762
aF0.076014748291991119
aa(lp2763
(S'lime_bch'
g555
tp2764
aF-0.34427263719083634
aa(lp2765
(S'sulfuric_acid_bch'
g555
tp2766
aF-0.45568204154313474
aa(lp2767
(S'gypsum_bch'
g555
tp2768
aF0.63254760983495029
aa(lp2769
(S'glyc_bch'
g559
tp2770
aI-1
aa(lp2771
(S'energy_bch'
g559
tp2772
ag1752
(g1754
S'6 \x8a\xc6\x8e\xe44\xc0'
tRp2773
aa(lp2774
(S'3hp_bch'
g559
tp2775
aF0.68602564989259296
aa(lp2776
(S'biomass_bch'
g559
tp2777
aF0.19320251165647331
aa(lp2778
(S'waste_organic_bch'
g559
tp2779
aF0.12077183845093376
aa(lp2780
(S'lime_bch'
g559
tp2781
aF-0.29701299979034052
aa(lp2782
(S'sulfuric_acid_bch'
g559
tp2783
aF-0.39312880400160799
aa(lp2784
(S'gypsum_bch'
g559
tp2785
aF0.54571535118298165
aa(lp2786
(S'glyc_bch'
g563
tp2787
aI-1
aa(lp2788
(S'energy_bch'
g563
tp2789
ag1752
(g1754
S'X\xdb\xb6\x05/-.\xc0'
tRp2790
aa(lp2791
(S'3hp_bch'
g563
tp2792
aF0.57298707262158399
aa(lp2793
(S'biomass_bch'
g563
tp2794
aF0.25760334887529807
aa(lp2795
(S'waste_organic_bch'
g563
tp2796
aF0.16940957850311791
aa(lp2797
(S'lime_bch'
g563
tp2798
aF-0.24807324523079738
aa(lp2799
(S'sulfuric_acid_bch'
g563
tp2800
aF-0.32835174982651616
aa(lp2801
(S'gypsum_bch'
g563
tp2802
aF0.45579613766329591
aa(lp2803
(S'glyc_bch'
g567
tp2804
aI-1
aa(lp2805
(S'energy_bch'
g567
tp2806
ag1752
(g1754
S'\xea0\xf9\xb6h+&\xc0'
tRp2807
aa(lp2808
(S'3hp_bch'
g567
tp2809
aF0.45994849535057919
aa(lp2810
(S'biomass_bch'
g567
tp2811
aF0.3220041860941254
aa(lp2812
(S'waste_organic_bch'
g567
tp2813
aF0.21804731855529536
aa(lp2814
(S'lime_bch'
g567
tp2815
aF-0.19913349067125605
aa(lp2816
(S'sulfuric_acid_bch'
g567
tp2817
aF-0.26357469565142666
aa(lp2818
(S'gypsum_bch'
g567
tp2819
aF0.36587692414361339
aa(lp2820
(S'glyc_bch'
g571
tp2821
aI-1
aa(lp2822
(S'energy_bch'
g571
tp2823
ag1752
(g1754
S'\x9d0\xe0\x9d&M \xc0'
tRp2824
aa(lp2825
(S'3hp_bch'
g571
tp2826
aF0.34690991807957439
aa(lp2827
(S'biomass_bch'
g571
tp2828
aF0.3864050233129438
aa(lp2829
(S'waste_organic_bch'
g571
tp2830
aF0.26668505860748182
aa(lp2831
(S'lime_bch'
g571
tp2832
aF-0.15019373611171469
aa(lp2833
(S'sulfuric_acid_bch'
g571
tp2834
aF-0.19879764147633716
aa(lp2835
(S'gypsum_bch'
g571
tp2836
aF0.27595771062393093
aa(lp2837
(S'glyc_bch'
g575
tp2838
aI-1
aa(lp2839
(S'energy_bch'
g575
tp2840
ag1752
(g1754
S'b\x08Ff\x16"\x1b\xc0'
tRp2841
aa(lp2842
(S'3hp_bch'
g575
tp2843
aF0.23189617264670448
aa(lp2844
(S'biomass_bch'
g575
tp2845
aF0.45080586053177329
aa(lp2846
(S'waste_organic_bch'
g575
tp2847
aF0.31729796682152217
aa(lp2848
(S'lime_bch'
g575
tp2849
aF-0.1003988376943048
aa(lp2850
(S'sulfuric_acid_bch'
g575
tp2851
aF-0.13288871198827992
aa(lp2852
(S'gypsum_bch'
g575
tp2853
aF0.18446730280959431
aa(lp2854
(S'glyc_bch'
g579
tp2855
aI-1
aa(lp2856
(S'energy_bch'
g579
tp2857
ag1752
(g1754
S'\x93\xf5\xee\x94\xccU\x19\xc0'
tRp2858
aa(lp2859
(S'3hp_bch'
g579
tp2860
aF0.11598077082825345
aa(lp2861
(S'biomass_bch'
g579
tp2862
aF0.51520669775059691
aa(lp2863
(S'waste_organic_bch'
g579
tp2864
aF0.36881253142114961
aa(lp2865
(S'lime_bch'
g579
tp2866
aF-0.050213569517537519
aa(lp2867
(S'sulfuric_acid_bch'
g579
tp2868
aF-0.066463085935685451
aa(lp2869
(S'gypsum_bch'
g579
tp2870
aF0.092259651068327508
aa(lp2871
(S'glc_bch'
g583
tp2872
aI-1
aa(lp2873
(S'energy_bch'
g583
tp2874
ag1752
(g1754
S'\xdc\xd2]2\x87W!\xc0'
tRp2875
aa(lp2876
(S'1,3pdo_bch'
g583
tp2877
aF0.55280742880030476
aa(lp2878
(S'biomass_bch'
g583
tp2879
aF0.013214204613555684
aa(lp2880
(S'waste_organic_bch'
g583
tp2881
aF0.43397836658613953
aa(lp2882
(S'glc_bch'
g587
tp2883
aI-1
aa(lp2884
(S'energy_bch'
g587
tp2885
ag1752
(g1754
S'\x82tY\x9b\x11\x07\x19\xc0'
tRp2886
aa(lp2887
(S'1,3pdo_bch'
g587
tp2888
aF0.51116833176940657
aa(lp2889
(S'biomass_bch'
g587
tp2890
aF0.026428409227110549
aa(lp2891
(S'waste_organic_bch'
g587
tp2892
aF0.46240325900348289
aa(lp2893
(S'glc_bch'
g591
tp2894
aI-1
aa(lp2895
(S'energy_bch'
g591
tp2896
ag1752
(g1754
S'\xb5pU\x84\x8bZ\x15\xc0'
tRp2897
aa(lp2898
(S'1,3pdo_bch'
g591
tp2899
aF0.46952923473850289
aa(lp2900
(S'biomass_bch'
g591
tp2901
aF0.039642613840667112
aa(lp2902
(S'waste_organic_bch'
g591
tp2903
aF0.49082815142083003
aa(lp2904
(S'glc_bch'
g595
tp2905
aI-1
aa(lp2906
(S'energy_bch'
g595
tp2907
ag1752
(g1754
S'^\xb3\x1a\xfa\x8b\xad\x12\xc0'
tRp2908
aa(lp2909
(S'1,3pdo_bch'
g595
tp2910
aF0.42777559960600986
aa(lp2911
(S'biomass_bch'
g595
tp2912
aF0.05285681845422751
aa(lp2913
(S'waste_organic_bch'
g595
tp2914
aF0.51936758193976262
aa(lp2915
(S'glc_bch'
g599
tp2916
aI-1
aa(lp2917
(S'energy_bch'
g599
tp2918
ag1752
(g1754
S'@I\xdd=)I\x10\xc0'
tRp2919
aa(lp2920
(S'1,3pdo_bch'
g599
tp2921
aF0.38272286517849446
aa(lp2922
(S'biomass_bch'
g599
tp2923
aF0.066071023067778428
aa(lp2924
(S'waste_organic_bch'
g599
tp2925
aF0.55120611175372713
aa(lp2926
(S'glc_bch'
g603
tp2927
aI-1
aa(lp2928
(S'energy_bch'
g603
tp2929
ag1752
(g1754
S'\x8c\x0e\xa3U\x85o\t\xc0'
tRp2930
aa(lp2931
(S'1,3pdo_bch'
g603
tp2932
aF0.30136102877164533
aa(lp2933
(S'biomass_bch'
g603
tp2934
aF0.079285227681334572
aa(lp2935
(S'waste_organic_bch'
g603
tp2936
aF0.61935374354702
aa(lp2937
(S'glc_bch'
g607
tp2938
aI-1
aa(lp2939
(S'energy_bch'
g607
tp2940
ag1752
(g1754
S'\x9e\x04W\xfbD\x11\t\xc0'
tRp2941
aa(lp2942
(S'1,3pdo_bch'
g607
tp2943
aF0.21959231932195006
aa(lp2944
(S'biomass_bch'
g607
tp2945
aF0.092499432294888578
aa(lp2946
(S'waste_organic_bch'
g607
tp2947
aF0.68790824838316134
aa(lp2948
(S'glc_bch'
g611
tp2949
aI-1
aa(lp2950
(S'energy_bch'
g611
tp2951
ag1752
(g1754
S'K\t\xe6\x8a\x96\xc6\x08\xc0'
tRp2952
aa(lp2953
(S'1,3pdo_bch'
g611
tp2954
aF0.13761532744096344
aa(lp2955
(S'biomass_bch'
g611
tp2956
aF0.10571363690844597
aa(lp2957
(S'waste_organic_bch'
g611
tp2958
aF0.75667103565059057
aa(lp2959
(S'glc_bch'
g615
tp2960
aI-1
aa(lp2961
(S'energy_bch'
g615
tp2962
ag1752
(g1754
S'\xber\x11DdH&\xc0'
tRp2963
aa(lp2964
(S'3hp_bch'
g615
tp2965
aF0.8284052899390113
aa(lp2966
(S'biomass_bch'
g615
tp2967
aF0.013214204613555752
aa(lp2968
(S'waste_organic_bch'
g615
tp2969
aF0.15838050544743293
aa(lp2970
(S'lime_bch'
g615
tp2971
aF-0.35865589026517408
aa(lp2972
(S'sulfuric_acid_bch'
g615
tp2973
aF-0.47471983141347135
aa(lp2974
(S'gypsum_bch'
g615
tp2975
aF0.6589746080072747
aa(lp2976
(S'glc_bch'
g619
tp2977
aI-1
aa(lp2978
(S'energy_bch'
g619
tp2979
ag1752
(g1754
S'&\x8d\x9d\xda\x89\x00!\xc0'
tRp2980
aa(lp2981
(S'3hp_bch'
g619
tp2982
aF0.72551370487801548
aa(lp2983
(S'biomass_bch'
g619
tp2984
aF0.026428409227112454
aa(lp2985
(S'waste_organic_bch'
g619
tp2986
aF0.24805788589487207
aa(lp2987
(S'lime_bch'
g619
tp2988
aF-0.314109249280345
aa(lp2989
(S'sulfuric_acid_bch'
g619
tp2990
aF-0.41575753782693858
aa(lp2991
(S'gypsum_bch'
g619
tp2992
aF0.57712705976454348
aa(lp2993
(S'glc_bch'
g623
tp2994
aI-1
aa(lp2995
(S'energy_bch'
g623
tp2996
ag1752
(g1754
S"\xf6\xd8k\xac'\xb2\x1b\xc0"
tRp2997
aa(lp2998
(S'3hp_bch'
g623
tp2999
aF0.62262211981703275
aa(lp3000
(S'biomass_bch'
g623
tp3001
aF0.039642613840667626
aa(lp3002
(S'waste_organic_bch'
g623
tp3003
aF0.33773526634229967
aa(lp3004
(S'lime_bch'
g623
tp3005
aF-0.26956260829552164
aa(lp3006
(S'sulfuric_acid_bch'
g623
tp3007
aF-0.35679524424041326
aa(lp3008
(S'gypsum_bch'
g623
tp3009
aF0.49527951152182281
aa(lp3010
(S'glc_bch'
g627
tp3011
aI-1
aa(lp3012
(S'energy_bch'
g627
tp3013
ag1752
(g1754
S'$HM\xc5=\xa2\x16\xc0'
tRp3014
aa(lp3015
(S'3hp_bch'
g627
tp3016
aF0.51973053475604769
aa(lp3017
(S'biomass_bch'
g627
tp3018
aF0.052856818454222861
aa(lp3019
(S'waste_organic_bch'
g627
tp3020
aF0.4274126467897294
aa(lp3021
(S'lime_bch'
g627
tp3022
aF-0.22501596731069731
aa(lp3023
(S'sulfuric_acid_bch'
g627
tp3024
aF-0.29783295065388671
aa(lp3025
(S'gypsum_bch'
g627
tp3026
aF0.41343196327910031
aa(lp3027
(S'glc_bch'
g631
tp3028
aI-1
aa(lp3029
(S'energy_bch'
g631
tp3030
ag1752
(g1754
S'k*\xa33\xdb\xb7\x11\xc0'
tRp3031
aa(lp3032
(S'3hp_bch'
g631
tp3033
aF0.41675691346424315
aa(lp3034
(S'biomass_bch'
g631
tp3035
aF0.066071023067777387
aa(lp3036
(S'waste_organic_bch'
g631
tp3037
aF0.5171720634679795
aa(lp3038
(S'lime_bch'
g631
tp3039
aF-0.18043380895562441
aa(lp3040
(S'sulfuric_acid_bch'
g631
tp3041
aF-0.23882364598940417
aa(lp3042
(S'gypsum_bch'
g631
tp3043
aF0.33151915737360899
aa(lp3044
(S'glc_bch'
g635
tp3045
aI-1
aa(lp3046
(S'energy_bch'
g635
tp3047
ag1752
(g1754
S'\xcb\xc0\xf2\xde\xff2\n\xc0'
tRp3048
aa(lp3049
(S'3hp_bch'
g635
tp3050
aF0.31313924466503545
aa(lp3051
(S'biomass_bch'
g635
tp3052
aF0.079285227681333115
aa(lp3053
(S'waste_organic_bch'
g635
tp3054
aF0.60757552765363143
aa(lp3055
(S'lime_bch'
g635
tp3056
aF-0.13557281192708323
aa(lp3057
(S'sulfuric_acid_bch'
g635
tp3058
aF-0.17944526820594242
aa(lp3059
(S'gypsum_bch'
g635
tp3060
aF0.24909402862459717
aa(lp3061
(S'glc_bch'
g639
tp3062
aI-1
aa(lp3063
(S'energy_bch'
g639
tp3064
ag1752
(g1754
S'\x80\xee\xea\xb5I\x11\t\xc0'
tRp3065
aa(lp3066
(S'3hp_bch'
g639
tp3067
aF0.20877703544254059
aa(lp3068
(S'biomass_bch'
g639
tp3069
aF0.092499432294891229
aa(lp3070
(S'waste_organic_bch'
g639
tp3071
aF0.69872353226256823
aa(lp3072
(S'lime_bch'
g639
tp3073
aF-0.090389468081596785
aa(lp3074
(S'sulfuric_acid_bch'
g639
tp3075
aF-0.11964022957359904
aa(lp3076
(S'gypsum_bch'
g639
tp3077
aF0.16607663756202939
aa(lp3078
(S'glc_bch'
g643
tp3079
aI-1
aa(lp3080
(S'energy_bch'
g643
tp3081
ag1752
(g1754
S'\x1f{\x9e\xa9\xa9\xc6\x08\xc0'
tRp3082
aa(lp3083
(S'3hp_bch'
g643
tp3084
aF0.10441482622004328
aa(lp3085
(S'biomass_bch'
g643
tp3086
aF0.10571363690844662
aa(lp3087
(S'waste_organic_bch'
g643
tp3088
aF0.78987153687151013
aa(lp3089
(S'lime_bch'
g643
tp3090
aF-0.045206124236109264
aa(lp3091
(S'sulfuric_acid_bch'
g643
tp3092
aF-0.059835190941254279
aa(lp3093
(S'gypsum_bch'
g643
tp3094
aF0.083059246499459699
aa(lp3095
(g1682
g647
tp3096
aI-1
aatRp3097
sg12
S'Biochemical Industry Model (glc, glyc, pdo, 3hp)'
p3098
sb.